
;CodeVisionAVR C Compiler V2.05.3 Standard
;(C) Copyright 1998-2011 Pavel Haiduc, HP InfoTech s.r.l.
;http://www.hpinfotech.com

;Chip type                : ATmega328P
;Program type             : Application
;Clock frequency          : 8,000000 MHz
;Memory model             : Small
;Optimize for             : Speed
;(s)printf features       : int, width
;(s)scanf features        : int, width
;External RAM size        : 0
;Data Stack size          : 1024 byte(s)
;Heap size                : 0 byte(s)
;Promote 'char' to 'int'  : No
;'char' is unsigned       : Yes
;8 bit enums              : No
;Global 'const' stored in FLASH     : Yes
;Enhanced function parameter passing: Yes
;Enhanced core instructions         : On
;Smart register allocation          : On
;Automatic register allocation      : On

	#pragma AVRPART ADMIN PART_NAME ATmega328P
	#pragma AVRPART MEMORY PROG_FLASH 32768
	#pragma AVRPART MEMORY EEPROM 1024
	#pragma AVRPART MEMORY INT_SRAM SIZE 2303
	#pragma AVRPART MEMORY INT_SRAM START_ADDR 0x100

	#define CALL_SUPPORTED 1

	.LISTMAC
	.EQU EERE=0x0
	.EQU EEWE=0x1
	.EQU EEMWE=0x2
	.EQU UDRE=0x5
	.EQU RXC=0x7
	.EQU EECR=0x1F
	.EQU EEDR=0x20
	.EQU EEARL=0x21
	.EQU EEARH=0x22
	.EQU SPSR=0x2D
	.EQU SPDR=0x2E
	.EQU SMCR=0x33
	.EQU MCUSR=0x34
	.EQU MCUCR=0x35
	.EQU WDTCSR=0x60
	.EQU UCSR0A=0xC0
	.EQU UDR0=0xC6
	.EQU SPL=0x3D
	.EQU SPH=0x3E
	.EQU SREG=0x3F
	.EQU GPIOR0=0x1E

	.DEF R0X0=R0
	.DEF R0X1=R1
	.DEF R0X2=R2
	.DEF R0X3=R3
	.DEF R0X4=R4
	.DEF R0X5=R5
	.DEF R0X6=R6
	.DEF R0X7=R7
	.DEF R0X8=R8
	.DEF R0X9=R9
	.DEF R0XA=R10
	.DEF R0XB=R11
	.DEF R0XC=R12
	.DEF R0XD=R13
	.DEF R0XE=R14
	.DEF R0XF=R15
	.DEF R0X10=R16
	.DEF R0X11=R17
	.DEF R0X12=R18
	.DEF R0X13=R19
	.DEF R0X14=R20
	.DEF R0X15=R21
	.DEF R0X16=R22
	.DEF R0X17=R23
	.DEF R0X18=R24
	.DEF R0X19=R25
	.DEF R0X1A=R26
	.DEF R0X1B=R27
	.DEF R0X1C=R28
	.DEF R0X1D=R29
	.DEF R0X1E=R30
	.DEF R0X1F=R31

	.EQU __SRAM_START=0x0100
	.EQU __SRAM_END=0x08FF
	.EQU __DSTACK_SIZE=0x0400
	.EQU __HEAP_SIZE=0x0000
	.EQU __CLEAR_SRAM_SIZE=__SRAM_END-__SRAM_START+1

	.MACRO __CPD1N
	CPI  R30,LOW(@0)
	LDI  R26,HIGH(@0)
	CPC  R31,R26
	LDI  R26,BYTE3(@0)
	CPC  R22,R26
	LDI  R26,BYTE4(@0)
	CPC  R23,R26
	.ENDM

	.MACRO __CPD2N
	CPI  R26,LOW(@0)
	LDI  R30,HIGH(@0)
	CPC  R27,R30
	LDI  R30,BYTE3(@0)
	CPC  R24,R30
	LDI  R30,BYTE4(@0)
	CPC  R25,R30
	.ENDM

	.MACRO __CPWRR
	CP   R@0,R@2
	CPC  R@1,R@3
	.ENDM

	.MACRO __CPWRN
	CPI  R@0,LOW(@2)
	LDI  R30,HIGH(@2)
	CPC  R@1,R30
	.ENDM

	.MACRO __ADDB1MN
	SUBI R30,LOW(-@0-(@1))
	.ENDM

	.MACRO __ADDB2MN
	SUBI R26,LOW(-@0-(@1))
	.ENDM

	.MACRO __ADDW1MN
	SUBI R30,LOW(-@0-(@1))
	SBCI R31,HIGH(-@0-(@1))
	.ENDM

	.MACRO __ADDW2MN
	SUBI R26,LOW(-@0-(@1))
	SBCI R27,HIGH(-@0-(@1))
	.ENDM

	.MACRO __ADDW1FN
	SUBI R30,LOW(-2*@0-(@1))
	SBCI R31,HIGH(-2*@0-(@1))
	.ENDM

	.MACRO __ADDD1FN
	SUBI R30,LOW(-2*@0-(@1))
	SBCI R31,HIGH(-2*@0-(@1))
	SBCI R22,BYTE3(-2*@0-(@1))
	.ENDM

	.MACRO __ADDD1N
	SUBI R30,LOW(-@0)
	SBCI R31,HIGH(-@0)
	SBCI R22,BYTE3(-@0)
	SBCI R23,BYTE4(-@0)
	.ENDM

	.MACRO __ADDD2N
	SUBI R26,LOW(-@0)
	SBCI R27,HIGH(-@0)
	SBCI R24,BYTE3(-@0)
	SBCI R25,BYTE4(-@0)
	.ENDM

	.MACRO __SUBD1N
	SUBI R30,LOW(@0)
	SBCI R31,HIGH(@0)
	SBCI R22,BYTE3(@0)
	SBCI R23,BYTE4(@0)
	.ENDM

	.MACRO __SUBD2N
	SUBI R26,LOW(@0)
	SBCI R27,HIGH(@0)
	SBCI R24,BYTE3(@0)
	SBCI R25,BYTE4(@0)
	.ENDM

	.MACRO __ANDBMNN
	LDS  R30,@0+(@1)
	ANDI R30,LOW(@2)
	STS  @0+(@1),R30
	.ENDM

	.MACRO __ANDWMNN
	LDS  R30,@0+(@1)
	ANDI R30,LOW(@2)
	STS  @0+(@1),R30
	LDS  R30,@0+(@1)+1
	ANDI R30,HIGH(@2)
	STS  @0+(@1)+1,R30
	.ENDM

	.MACRO __ANDD1N
	ANDI R30,LOW(@0)
	ANDI R31,HIGH(@0)
	ANDI R22,BYTE3(@0)
	ANDI R23,BYTE4(@0)
	.ENDM

	.MACRO __ANDD2N
	ANDI R26,LOW(@0)
	ANDI R27,HIGH(@0)
	ANDI R24,BYTE3(@0)
	ANDI R25,BYTE4(@0)
	.ENDM

	.MACRO __ORBMNN
	LDS  R30,@0+(@1)
	ORI  R30,LOW(@2)
	STS  @0+(@1),R30
	.ENDM

	.MACRO __ORWMNN
	LDS  R30,@0+(@1)
	ORI  R30,LOW(@2)
	STS  @0+(@1),R30
	LDS  R30,@0+(@1)+1
	ORI  R30,HIGH(@2)
	STS  @0+(@1)+1,R30
	.ENDM

	.MACRO __ORD1N
	ORI  R30,LOW(@0)
	ORI  R31,HIGH(@0)
	ORI  R22,BYTE3(@0)
	ORI  R23,BYTE4(@0)
	.ENDM

	.MACRO __ORD2N
	ORI  R26,LOW(@0)
	ORI  R27,HIGH(@0)
	ORI  R24,BYTE3(@0)
	ORI  R25,BYTE4(@0)
	.ENDM

	.MACRO __DELAY_USB
	LDI  R24,LOW(@0)
__DELAY_USB_LOOP:
	DEC  R24
	BRNE __DELAY_USB_LOOP
	.ENDM

	.MACRO __DELAY_USW
	LDI  R24,LOW(@0)
	LDI  R25,HIGH(@0)
__DELAY_USW_LOOP:
	SBIW R24,1
	BRNE __DELAY_USW_LOOP
	.ENDM

	.MACRO __GETD1S
	LDD  R30,Y+@0
	LDD  R31,Y+@0+1
	LDD  R22,Y+@0+2
	LDD  R23,Y+@0+3
	.ENDM

	.MACRO __GETD2S
	LDD  R26,Y+@0
	LDD  R27,Y+@0+1
	LDD  R24,Y+@0+2
	LDD  R25,Y+@0+3
	.ENDM

	.MACRO __PUTD1S
	STD  Y+@0,R30
	STD  Y+@0+1,R31
	STD  Y+@0+2,R22
	STD  Y+@0+3,R23
	.ENDM

	.MACRO __PUTD2S
	STD  Y+@0,R26
	STD  Y+@0+1,R27
	STD  Y+@0+2,R24
	STD  Y+@0+3,R25
	.ENDM

	.MACRO __PUTDZ2
	STD  Z+@0,R26
	STD  Z+@0+1,R27
	STD  Z+@0+2,R24
	STD  Z+@0+3,R25
	.ENDM

	.MACRO __CLRD1S
	STD  Y+@0,R30
	STD  Y+@0+1,R30
	STD  Y+@0+2,R30
	STD  Y+@0+3,R30
	.ENDM

	.MACRO __POINTB1MN
	LDI  R30,LOW(@0+(@1))
	.ENDM

	.MACRO __POINTW1MN
	LDI  R30,LOW(@0+(@1))
	LDI  R31,HIGH(@0+(@1))
	.ENDM

	.MACRO __POINTD1M
	LDI  R30,LOW(@0)
	LDI  R31,HIGH(@0)
	LDI  R22,BYTE3(@0)
	LDI  R23,BYTE4(@0)
	.ENDM

	.MACRO __POINTW1FN
	LDI  R30,LOW(2*@0+(@1))
	LDI  R31,HIGH(2*@0+(@1))
	.ENDM

	.MACRO __POINTD1FN
	LDI  R30,LOW(2*@0+(@1))
	LDI  R31,HIGH(2*@0+(@1))
	LDI  R22,BYTE3(2*@0+(@1))
	LDI  R23,BYTE4(2*@0+(@1))
	.ENDM

	.MACRO __POINTB2MN
	LDI  R26,LOW(@0+(@1))
	.ENDM

	.MACRO __POINTW2MN
	LDI  R26,LOW(@0+(@1))
	LDI  R27,HIGH(@0+(@1))
	.ENDM

	.MACRO __POINTW2FN
	LDI  R26,LOW(2*@0+(@1))
	LDI  R27,HIGH(2*@0+(@1))
	.ENDM

	.MACRO __POINTD2FN
	LDI  R26,LOW(2*@0+(@1))
	LDI  R27,HIGH(2*@0+(@1))
	LDI  R24,BYTE3(2*@0+(@1))
	LDI  R25,BYTE4(2*@0+(@1))
	.ENDM

	.MACRO __POINTBRM
	LDI  R@0,LOW(@1)
	.ENDM

	.MACRO __POINTWRM
	LDI  R@0,LOW(@2)
	LDI  R@1,HIGH(@2)
	.ENDM

	.MACRO __POINTBRMN
	LDI  R@0,LOW(@1+(@2))
	.ENDM

	.MACRO __POINTWRMN
	LDI  R@0,LOW(@2+(@3))
	LDI  R@1,HIGH(@2+(@3))
	.ENDM

	.MACRO __POINTWRFN
	LDI  R@0,LOW(@2*2+(@3))
	LDI  R@1,HIGH(@2*2+(@3))
	.ENDM

	.MACRO __GETD1N
	LDI  R30,LOW(@0)
	LDI  R31,HIGH(@0)
	LDI  R22,BYTE3(@0)
	LDI  R23,BYTE4(@0)
	.ENDM

	.MACRO __GETD2N
	LDI  R26,LOW(@0)
	LDI  R27,HIGH(@0)
	LDI  R24,BYTE3(@0)
	LDI  R25,BYTE4(@0)
	.ENDM

	.MACRO __GETB1MN
	LDS  R30,@0+(@1)
	.ENDM

	.MACRO __GETB1HMN
	LDS  R31,@0+(@1)
	.ENDM

	.MACRO __GETW1MN
	LDS  R30,@0+(@1)
	LDS  R31,@0+(@1)+1
	.ENDM

	.MACRO __GETD1MN
	LDS  R30,@0+(@1)
	LDS  R31,@0+(@1)+1
	LDS  R22,@0+(@1)+2
	LDS  R23,@0+(@1)+3
	.ENDM

	.MACRO __GETBRMN
	LDS  R@0,@1+(@2)
	.ENDM

	.MACRO __GETWRMN
	LDS  R@0,@2+(@3)
	LDS  R@1,@2+(@3)+1
	.ENDM

	.MACRO __GETWRZ
	LDD  R@0,Z+@2
	LDD  R@1,Z+@2+1
	.ENDM

	.MACRO __GETD2Z
	LDD  R26,Z+@0
	LDD  R27,Z+@0+1
	LDD  R24,Z+@0+2
	LDD  R25,Z+@0+3
	.ENDM

	.MACRO __GETB2MN
	LDS  R26,@0+(@1)
	.ENDM

	.MACRO __GETW2MN
	LDS  R26,@0+(@1)
	LDS  R27,@0+(@1)+1
	.ENDM

	.MACRO __GETD2MN
	LDS  R26,@0+(@1)
	LDS  R27,@0+(@1)+1
	LDS  R24,@0+(@1)+2
	LDS  R25,@0+(@1)+3
	.ENDM

	.MACRO __PUTB1MN
	STS  @0+(@1),R30
	.ENDM

	.MACRO __PUTW1MN
	STS  @0+(@1),R30
	STS  @0+(@1)+1,R31
	.ENDM

	.MACRO __PUTD1MN
	STS  @0+(@1),R30
	STS  @0+(@1)+1,R31
	STS  @0+(@1)+2,R22
	STS  @0+(@1)+3,R23
	.ENDM

	.MACRO __PUTB1EN
	LDI  R26,LOW(@0+(@1))
	LDI  R27,HIGH(@0+(@1))
	CALL __EEPROMWRB
	.ENDM

	.MACRO __PUTW1EN
	LDI  R26,LOW(@0+(@1))
	LDI  R27,HIGH(@0+(@1))
	CALL __EEPROMWRW
	.ENDM

	.MACRO __PUTD1EN
	LDI  R26,LOW(@0+(@1))
	LDI  R27,HIGH(@0+(@1))
	CALL __EEPROMWRD
	.ENDM

	.MACRO __PUTBR0MN
	STS  @0+(@1),R0
	.ENDM

	.MACRO __PUTBMRN
	STS  @0+(@1),R@2
	.ENDM

	.MACRO __PUTWMRN
	STS  @0+(@1),R@2
	STS  @0+(@1)+1,R@3
	.ENDM

	.MACRO __PUTBZR
	STD  Z+@1,R@0
	.ENDM

	.MACRO __PUTWZR
	STD  Z+@2,R@0
	STD  Z+@2+1,R@1
	.ENDM

	.MACRO __GETW1R
	MOV  R30,R@0
	MOV  R31,R@1
	.ENDM

	.MACRO __GETW2R
	MOV  R26,R@0
	MOV  R27,R@1
	.ENDM

	.MACRO __GETWRN
	LDI  R@0,LOW(@2)
	LDI  R@1,HIGH(@2)
	.ENDM

	.MACRO __PUTW1R
	MOV  R@0,R30
	MOV  R@1,R31
	.ENDM

	.MACRO __PUTW2R
	MOV  R@0,R26
	MOV  R@1,R27
	.ENDM

	.MACRO __ADDWRN
	SUBI R@0,LOW(-@2)
	SBCI R@1,HIGH(-@2)
	.ENDM

	.MACRO __ADDWRR
	ADD  R@0,R@2
	ADC  R@1,R@3
	.ENDM

	.MACRO __SUBWRN
	SUBI R@0,LOW(@2)
	SBCI R@1,HIGH(@2)
	.ENDM

	.MACRO __SUBWRR
	SUB  R@0,R@2
	SBC  R@1,R@3
	.ENDM

	.MACRO __ANDWRN
	ANDI R@0,LOW(@2)
	ANDI R@1,HIGH(@2)
	.ENDM

	.MACRO __ANDWRR
	AND  R@0,R@2
	AND  R@1,R@3
	.ENDM

	.MACRO __ORWRN
	ORI  R@0,LOW(@2)
	ORI  R@1,HIGH(@2)
	.ENDM

	.MACRO __ORWRR
	OR   R@0,R@2
	OR   R@1,R@3
	.ENDM

	.MACRO __EORWRR
	EOR  R@0,R@2
	EOR  R@1,R@3
	.ENDM

	.MACRO __GETWRS
	LDD  R@0,Y+@2
	LDD  R@1,Y+@2+1
	.ENDM

	.MACRO __PUTBSR
	STD  Y+@1,R@0
	.ENDM

	.MACRO __PUTWSR
	STD  Y+@2,R@0
	STD  Y+@2+1,R@1
	.ENDM

	.MACRO __MOVEWRR
	MOV  R@0,R@2
	MOV  R@1,R@3
	.ENDM

	.MACRO __INWR
	IN   R@0,@2
	IN   R@1,@2+1
	.ENDM

	.MACRO __OUTWR
	OUT  @2+1,R@1
	OUT  @2,R@0
	.ENDM

	.MACRO __CALL1MN
	LDS  R30,@0+(@1)
	LDS  R31,@0+(@1)+1
	ICALL
	.ENDM

	.MACRO __CALL1FN
	LDI  R30,LOW(2*@0+(@1))
	LDI  R31,HIGH(2*@0+(@1))
	CALL __GETW1PF
	ICALL
	.ENDM

	.MACRO __CALL2EN
	LDI  R26,LOW(@0+(@1))
	LDI  R27,HIGH(@0+(@1))
	CALL __EEPROMRDW
	ICALL
	.ENDM

	.MACRO __GETW1STACK
	IN   R26,SPL
	IN   R27,SPH
	ADIW R26,@0+1
	LD   R30,X+
	LD   R31,X
	.ENDM

	.MACRO __GETD1STACK
	IN   R26,SPL
	IN   R27,SPH
	ADIW R26,@0+1
	LD   R30,X+
	LD   R31,X+
	LD   R22,X
	.ENDM

	.MACRO __NBST
	BST  R@0,@1
	IN   R30,SREG
	LDI  R31,0x40
	EOR  R30,R31
	OUT  SREG,R30
	.ENDM


	.MACRO __PUTB1SN
	LDD  R26,Y+@0
	LDD  R27,Y+@0+1
	SUBI R26,LOW(-@1)
	SBCI R27,HIGH(-@1)
	ST   X,R30
	.ENDM

	.MACRO __PUTW1SN
	LDD  R26,Y+@0
	LDD  R27,Y+@0+1
	SUBI R26,LOW(-@1)
	SBCI R27,HIGH(-@1)
	ST   X+,R30
	ST   X,R31
	.ENDM

	.MACRO __PUTD1SN
	LDD  R26,Y+@0
	LDD  R27,Y+@0+1
	SUBI R26,LOW(-@1)
	SBCI R27,HIGH(-@1)
	CALL __PUTDP1
	.ENDM

	.MACRO __PUTB1SNS
	LDD  R26,Y+@0
	LDD  R27,Y+@0+1
	ADIW R26,@1
	ST   X,R30
	.ENDM

	.MACRO __PUTW1SNS
	LDD  R26,Y+@0
	LDD  R27,Y+@0+1
	ADIW R26,@1
	ST   X+,R30
	ST   X,R31
	.ENDM

	.MACRO __PUTD1SNS
	LDD  R26,Y+@0
	LDD  R27,Y+@0+1
	ADIW R26,@1
	CALL __PUTDP1
	.ENDM

	.MACRO __PUTB1PMN
	LDS  R26,@0
	LDS  R27,@0+1
	SUBI R26,LOW(-@1)
	SBCI R27,HIGH(-@1)
	ST   X,R30
	.ENDM

	.MACRO __PUTW1PMN
	LDS  R26,@0
	LDS  R27,@0+1
	SUBI R26,LOW(-@1)
	SBCI R27,HIGH(-@1)
	ST   X+,R30
	ST   X,R31
	.ENDM

	.MACRO __PUTD1PMN
	LDS  R26,@0
	LDS  R27,@0+1
	SUBI R26,LOW(-@1)
	SBCI R27,HIGH(-@1)
	CALL __PUTDP1
	.ENDM

	.MACRO __PUTB1PMNS
	LDS  R26,@0
	LDS  R27,@0+1
	ADIW R26,@1
	ST   X,R30
	.ENDM

	.MACRO __PUTW1PMNS
	LDS  R26,@0
	LDS  R27,@0+1
	ADIW R26,@1
	ST   X+,R30
	ST   X,R31
	.ENDM

	.MACRO __PUTD1PMNS
	LDS  R26,@0
	LDS  R27,@0+1
	ADIW R26,@1
	CALL __PUTDP1
	.ENDM

	.MACRO __PUTB1RN
	MOVW R26,R@0
	SUBI R26,LOW(-@1)
	SBCI R27,HIGH(-@1)
	ST   X,R30
	.ENDM

	.MACRO __PUTW1RN
	MOVW R26,R@0
	SUBI R26,LOW(-@1)
	SBCI R27,HIGH(-@1)
	ST   X+,R30
	ST   X,R31
	.ENDM

	.MACRO __PUTD1RN
	MOVW R26,R@0
	SUBI R26,LOW(-@1)
	SBCI R27,HIGH(-@1)
	CALL __PUTDP1
	.ENDM

	.MACRO __PUTB1RNS
	MOVW R26,R@0
	ADIW R26,@1
	ST   X,R30
	.ENDM

	.MACRO __PUTW1RNS
	MOVW R26,R@0
	ADIW R26,@1
	ST   X+,R30
	ST   X,R31
	.ENDM

	.MACRO __PUTD1RNS
	MOVW R26,R@0
	ADIW R26,@1
	CALL __PUTDP1
	.ENDM

	.MACRO __PUTB1RON
	MOV  R26,R@0
	MOV  R27,R@1
	SUBI R26,LOW(-@2)
	SBCI R27,HIGH(-@2)
	ST   X,R30
	.ENDM

	.MACRO __PUTW1RON
	MOV  R26,R@0
	MOV  R27,R@1
	SUBI R26,LOW(-@2)
	SBCI R27,HIGH(-@2)
	ST   X+,R30
	ST   X,R31
	.ENDM

	.MACRO __PUTD1RON
	MOV  R26,R@0
	MOV  R27,R@1
	SUBI R26,LOW(-@2)
	SBCI R27,HIGH(-@2)
	CALL __PUTDP1
	.ENDM

	.MACRO __PUTB1RONS
	MOV  R26,R@0
	MOV  R27,R@1
	ADIW R26,@2
	ST   X,R30
	.ENDM

	.MACRO __PUTW1RONS
	MOV  R26,R@0
	MOV  R27,R@1
	ADIW R26,@2
	ST   X+,R30
	ST   X,R31
	.ENDM

	.MACRO __PUTD1RONS
	MOV  R26,R@0
	MOV  R27,R@1
	ADIW R26,@2
	CALL __PUTDP1
	.ENDM


	.MACRO __GETB1SX
	MOVW R30,R28
	SUBI R30,LOW(-@0)
	SBCI R31,HIGH(-@0)
	LD   R30,Z
	.ENDM

	.MACRO __GETB1HSX
	MOVW R30,R28
	SUBI R30,LOW(-@0)
	SBCI R31,HIGH(-@0)
	LD   R31,Z
	.ENDM

	.MACRO __GETW1SX
	MOVW R30,R28
	SUBI R30,LOW(-@0)
	SBCI R31,HIGH(-@0)
	LD   R0,Z+
	LD   R31,Z
	MOV  R30,R0
	.ENDM

	.MACRO __GETD1SX
	MOVW R30,R28
	SUBI R30,LOW(-@0)
	SBCI R31,HIGH(-@0)
	LD   R0,Z+
	LD   R1,Z+
	LD   R22,Z+
	LD   R23,Z
	MOVW R30,R0
	.ENDM

	.MACRO __GETB2SX
	MOVW R26,R28
	SUBI R26,LOW(-@0)
	SBCI R27,HIGH(-@0)
	LD   R26,X
	.ENDM

	.MACRO __GETW2SX
	MOVW R26,R28
	SUBI R26,LOW(-@0)
	SBCI R27,HIGH(-@0)
	LD   R0,X+
	LD   R27,X
	MOV  R26,R0
	.ENDM

	.MACRO __GETD2SX
	MOVW R26,R28
	SUBI R26,LOW(-@0)
	SBCI R27,HIGH(-@0)
	LD   R0,X+
	LD   R1,X+
	LD   R24,X+
	LD   R25,X
	MOVW R26,R0
	.ENDM

	.MACRO __GETBRSX
	MOVW R30,R28
	SUBI R30,LOW(-@1)
	SBCI R31,HIGH(-@1)
	LD   R@0,Z
	.ENDM

	.MACRO __GETWRSX
	MOVW R30,R28
	SUBI R30,LOW(-@2)
	SBCI R31,HIGH(-@2)
	LD   R@0,Z+
	LD   R@1,Z
	.ENDM

	.MACRO __GETBRSX2
	MOVW R26,R28
	SUBI R26,LOW(-@1)
	SBCI R27,HIGH(-@1)
	LD   R@0,X
	.ENDM

	.MACRO __GETWRSX2
	MOVW R26,R28
	SUBI R26,LOW(-@2)
	SBCI R27,HIGH(-@2)
	LD   R@0,X+
	LD   R@1,X
	.ENDM

	.MACRO __LSLW8SX
	MOVW R30,R28
	SUBI R30,LOW(-@0)
	SBCI R31,HIGH(-@0)
	LD   R31,Z
	CLR  R30
	.ENDM

	.MACRO __PUTB1SX
	MOVW R26,R28
	SUBI R26,LOW(-@0)
	SBCI R27,HIGH(-@0)
	ST   X,R30
	.ENDM

	.MACRO __PUTW1SX
	MOVW R26,R28
	SUBI R26,LOW(-@0)
	SBCI R27,HIGH(-@0)
	ST   X+,R30
	ST   X,R31
	.ENDM

	.MACRO __PUTD1SX
	MOVW R26,R28
	SUBI R26,LOW(-@0)
	SBCI R27,HIGH(-@0)
	ST   X+,R30
	ST   X+,R31
	ST   X+,R22
	ST   X,R23
	.ENDM

	.MACRO __CLRW1SX
	MOVW R26,R28
	SUBI R26,LOW(-@0)
	SBCI R27,HIGH(-@0)
	ST   X+,R30
	ST   X,R30
	.ENDM

	.MACRO __CLRD1SX
	MOVW R26,R28
	SUBI R26,LOW(-@0)
	SBCI R27,HIGH(-@0)
	ST   X+,R30
	ST   X+,R30
	ST   X+,R30
	ST   X,R30
	.ENDM

	.MACRO __PUTB2SX
	MOVW R30,R28
	SUBI R30,LOW(-@0)
	SBCI R31,HIGH(-@0)
	ST   Z,R26
	.ENDM

	.MACRO __PUTW2SX
	MOVW R30,R28
	SUBI R30,LOW(-@0)
	SBCI R31,HIGH(-@0)
	ST   Z+,R26
	ST   Z,R27
	.ENDM

	.MACRO __PUTD2SX
	MOVW R30,R28
	SUBI R30,LOW(-@0)
	SBCI R31,HIGH(-@0)
	ST   Z+,R26
	ST   Z+,R27
	ST   Z+,R24
	ST   Z,R25
	.ENDM

	.MACRO __PUTBSRX
	MOVW R30,R28
	SUBI R30,LOW(-@1)
	SBCI R31,HIGH(-@1)
	ST   Z,R@0
	.ENDM

	.MACRO __PUTWSRX
	MOVW R30,R28
	SUBI R30,LOW(-@2)
	SBCI R31,HIGH(-@2)
	ST   Z+,R@0
	ST   Z,R@1
	.ENDM

	.MACRO __PUTB1SNX
	MOVW R26,R28
	SUBI R26,LOW(-@0)
	SBCI R27,HIGH(-@0)
	LD   R0,X+
	LD   R27,X
	MOV  R26,R0
	SUBI R26,LOW(-@1)
	SBCI R27,HIGH(-@1)
	ST   X,R30
	.ENDM

	.MACRO __PUTW1SNX
	MOVW R26,R28
	SUBI R26,LOW(-@0)
	SBCI R27,HIGH(-@0)
	LD   R0,X+
	LD   R27,X
	MOV  R26,R0
	SUBI R26,LOW(-@1)
	SBCI R27,HIGH(-@1)
	ST   X+,R30
	ST   X,R31
	.ENDM

	.MACRO __PUTD1SNX
	MOVW R26,R28
	SUBI R26,LOW(-@0)
	SBCI R27,HIGH(-@0)
	LD   R0,X+
	LD   R27,X
	MOV  R26,R0
	SUBI R26,LOW(-@1)
	SBCI R27,HIGH(-@1)
	ST   X+,R30
	ST   X+,R31
	ST   X+,R22
	ST   X,R23
	.ENDM

	.MACRO __MULBRR
	MULS R@0,R@1
	MOVW R30,R0
	.ENDM

	.MACRO __MULBRRU
	MUL  R@0,R@1
	MOVW R30,R0
	.ENDM

	.MACRO __MULBRR0
	MULS R@0,R@1
	.ENDM

	.MACRO __MULBRRU0
	MUL  R@0,R@1
	.ENDM

	.MACRO __MULBNWRU
	LDI  R26,@2
	MUL  R26,R@0
	MOVW R30,R0
	MUL  R26,R@1
	ADD  R31,R0
	.ENDM

;NAME DEFINITIONS FOR GLOBAL VARIABLES ALLOCATED TO REGISTERS
	.DEF _k0=R5
	.DEF _k1=R4
	.DEF _k2=R7
	.DEF _k3=R6
	.DEF _k4=R9
	.DEF _k5=R8
	.DEF _k6=R11
	.DEF _k7=R10
	.DEF _k8=R13
	.DEF _bining=R12

;GPIOR0 INITIALIZATION VALUE
	.EQU __GPIOR0_INIT=0x00

	.CSEG
	.ORG 0x00

;START OF CODE MARKER
__START_OF_CODE:

;INTERRUPT VECTORS
	JMP  __RESET
	JMP  0x00
	JMP  0x00
	JMP  _pcint0
	JMP  0x00
	JMP  0x00
	JMP  0x00
	JMP  0x00
	JMP  0x00
	JMP  0x00
	JMP  0x00
	JMP  0x00
	JMP  0x00
	JMP  0x00
	JMP  0x00
	JMP  0x00
	JMP  0x00
	JMP  0x00
	JMP  0x00
	JMP  0x00
	JMP  0x00
	JMP  0x00
	JMP  0x00
	JMP  0x00
	JMP  0x00
	JMP  0x00

__RESET:
	CLI
	CLR  R30
	OUT  EECR,R30

;INTERRUPT VECTORS ARE PLACED
;AT THE START OF FLASH
	LDI  R31,1
	OUT  MCUCR,R31
	OUT  MCUCR,R30

;DISABLE WATCHDOG
	LDI  R31,0x18
	WDR
	IN   R26,MCUSR
	CBR  R26,8
	OUT  MCUSR,R26
	STS  WDTCSR,R31
	STS  WDTCSR,R30

;CLEAR R2-R14
	LDI  R24,(14-2)+1
	LDI  R26,2
	CLR  R27
__CLEAR_REG:
	ST   X+,R30
	DEC  R24
	BRNE __CLEAR_REG

;CLEAR SRAM
	LDI  R24,LOW(__CLEAR_SRAM_SIZE)
	LDI  R25,HIGH(__CLEAR_SRAM_SIZE)
	LDI  R26,LOW(__SRAM_START)
	LDI  R27,HIGH(__SRAM_START)
__CLEAR_SRAM:
	ST   X+,R30
	SBIW R24,1
	BRNE __CLEAR_SRAM

;GPIOR0 INITIALIZATION
	LDI  R30,__GPIOR0_INIT
	OUT  GPIOR0,R30

;HARDWARE STACK POINTER INITIALIZATION
	LDI  R30,LOW(__SRAM_END-__HEAP_SIZE)
	OUT  SPL,R30
	LDI  R30,HIGH(__SRAM_END-__HEAP_SIZE)
	OUT  SPH,R30

;DATA STACK POINTER INITIALIZATION
	LDI  R28,LOW(__SRAM_START+__DSTACK_SIZE)
	LDI  R29,HIGH(__SRAM_START+__DSTACK_SIZE)

	JMP  _main

	.ESEG
	.ORG 0

	.DSEG
	.ORG 0x500

	.CSEG
;#include <mega328.h>
	#ifndef __SLEEP_DEFINED__
	#define __SLEEP_DEFINED__
	.EQU __se_bit=0x01
	.EQU __sm_mask=0x0E
	.EQU __sm_adc_noise_red=0x02
	.EQU __sm_powerdown=0x04
	.EQU __sm_powersave=0x06
	.EQU __sm_standby=0x0C
	.EQU __sm_ext_standby=0x0E
	.SET power_ctrl_reg=smcr
	#endif
;#include <delay.h>
;
;//User configurable definitions
;
;#define KP		0.04
;
;
;//System specific definitions
;#define CYCLE   1020  //ms
;
;typedef unsigned char uint8_t;
;typedef unsigned int uint16_t;
;
;#define TRUE    1
;#define FALSE   0
;
;#define TRUE_INV_PROT 0xaa55
;#define FALSE_INV_PROT 0x55aa
;#define HIGH_MASK_PROT 0xaa00
;
;#define TEMP_OFFSET 1280 //128C
;
;#define MIN_TEMP (TEMP_OFFSET-500) //-50C
;#define MAX_TEMP (TEMP_OFFSET+500) //50C
;#define FACTORY_TARGET_TEMP 1730   //25C
;
;#define pixel4 PORTC = k0; \
;               PORTC = k1; \
;               PORTC = k2; \
;               PORTC = k3; \
;               PORTC = k4; \
;               PORTC = k5; \
;               PORTC = k6; \
;               PORTC = k7;
;#define pixel8 pixel4 \
;               pixel4
;#define pixel40 pixel8 \
;                pixel8 \
;                pixel8 \
;                pixel8 \
;                pixel8
;#define pixel200 pixel40 \
;                 pixel40 \
;                 pixel40 \
;                 pixel40 \
;                 pixel40
;#define pixel1000 pixel200 \
;                  pixel200 \
;                  pixel200 \
;                  pixel200 \
;                  pixel200
;unsigned char k0;
;unsigned char k1;
;unsigned char k2;
;unsigned char k3;
;unsigned char k4;
;unsigned char k5;
;unsigned char k6;
;unsigned char k7;
;unsigned char k8;
;
;uint16_t y0;
;uint16_t dy;
;uint16_t expoz;
;uint8_t bining;
;
;uint8_t cmdReceived;
;uint8_t command;
;uint16_t parcom;
;
;uint16_t sensorTemp;
;uint16_t targetTemp;
;uint8_t coolerOn;
;uint8_t coolerPower;
;
;uint16_t targetTempInBuffer;
;uint8_t coolerOnInBuffer;
;uint16_t sensorTempOutBuffer;
;uint8_t coolerPowerOutBuffer;
;
;/* Function prototypes */
;void initDS12B20(void);
;void readDS12B20(void);
;void reset(void);
;void wbyte(uint8_t byte);
;uint8_t rbyte(void);
;void PIDLoop (void);
;void initCamera (void);
;
;void frame(void);
;void shift(void);
;void shift2(void);
;void shift3(void);
;void zad(void);
;void zad2(uint16_t expp);
;void clearline(void);
;void clearframe(void);
;uint16_t resi(void);
;
;/* Interrupt, triggered when new command arrives */
;interrupt [PC_INT0] void pcint0(void)
; 0000 0067 {

	.CSEG
_pcint0:
	ST   -Y,R0
	ST   -Y,R1
	ST   -Y,R15
	ST   -Y,R22
	ST   -Y,R23
	ST   -Y,R24
	ST   -Y,R25
	ST   -Y,R26
	ST   -Y,R27
	ST   -Y,R30
	ST   -Y,R31
	IN   R30,SREG
	ST   -Y,R30
; 0000 0068     PCMSK0 = 0x00;
	LDI  R30,LOW(0)
	STS  107,R30
; 0000 0069     parcom = resi();
	CALL _resi
	STS  _parcom,R30
	STS  _parcom+1,R31
; 0000 006A     cmdReceived = TRUE;
	LDI  R30,LOW(1)
	STS  _cmdReceived,R30
; 0000 006B     switch (command)
	LDS  R30,_command
; 0000 006C     {
; 0000 006D         case 0x1b:
	CPI  R30,LOW(0x1B)
	BRNE _0x6
; 0000 006E             frame();
	RCALL _frame
; 0000 006F             break;
	RJMP _0x5
; 0000 0070         case 0x2b:
_0x6:
	CPI  R30,LOW(0x2B)
	BRNE _0x7
; 0000 0071             shift3();
	CALL _shift3
; 0000 0072             break;
	RJMP _0x5
; 0000 0073         case 0x3b:
_0x7:
	CPI  R30,LOW(0x3B)
	BRNE _0x8
; 0000 0074             PORTD = 0x4f;
	LDI  R30,LOW(79)
	OUT  0xB,R30
; 0000 0075             zad2(1);
	LDI  R26,LOW(1)
	LDI  R27,0
	CALL _zad2
; 0000 0076             PORTD = 0x4f;
	LDI  R30,LOW(79)
	OUT  0xB,R30
; 0000 0077             break;
	RJMP _0x5
; 0000 0078         //ROI, StartY
; 0000 0079         case 0x4b:
_0x8:
	CPI  R30,LOW(0x4B)
	BRNE _0x9
; 0000 007A             y0 = parcom;
	LDS  R30,_parcom
	LDS  R31,_parcom+1
	STS  _y0,R30
	STS  _y0+1,R31
; 0000 007B             break;
	RJMP _0x5
; 0000 007C         //ROI, NumY
; 0000 007D         case 0x5b:
_0x9:
	CPI  R30,LOW(0x5B)
	BRNE _0xA
; 0000 007E             dy = parcom;
	LDS  R30,_parcom
	LDS  R31,_parcom+1
	STS  _dy,R30
	STS  _dy+1,R31
; 0000 007F             break;
	RJMP _0x5
; 0000 0080         //set exposure
; 0000 0081         case 0x6b:
_0xA:
	CPI  R30,LOW(0x6B)
	BRNE _0xB
; 0000 0082             expoz = parcom;
	LDS  R30,_parcom
	LDS  R31,_parcom+1
	STS  _expoz,R30
	STS  _expoz+1,R31
; 0000 0083             break;
	RJMP _0x5
; 0000 0084         //set binning
; 0000 0085         case 0x8b:
_0xB:
	CPI  R30,LOW(0x8B)
	BRNE _0xC
; 0000 0086             if ((parcom==TRUE) || (parcom==FALSE))
	LDS  R26,_parcom
	LDS  R27,_parcom+1
	SBIW R26,1
	BREQ _0xE
	LDS  R26,_parcom
	LDS  R27,_parcom+1
	SBIW R26,0
	BRNE _0xD
_0xE:
; 0000 0087             {
; 0000 0088                 bining = parcom;
	LDS  R12,_parcom
; 0000 0089             }
; 0000 008A             break;
_0xD:
	RJMP _0x5
; 0000 008B         // on/off cooler
; 0000 008C         case 0x9b:
_0xC:
	CPI  R30,LOW(0x9B)
	BRNE _0x10
; 0000 008D             if ((parcom==TRUE) || (parcom==FALSE))
	LDS  R26,_parcom
	LDS  R27,_parcom+1
	SBIW R26,1
	BREQ _0x12
	LDS  R26,_parcom
	LDS  R27,_parcom+1
	SBIW R26,0
	BRNE _0x11
_0x12:
; 0000 008E             {
; 0000 008F                 coolerOnInBuffer = parcom;
	LDS  R30,_parcom
	STS  _coolerOnInBuffer,R30
; 0000 0090             }
; 0000 0091             break;
_0x11:
	RJMP _0x5
; 0000 0092         // set target temperature
; 0000 0093         case 0xab:
_0x10:
	CPI  R30,LOW(0xAB)
	BRNE _0x14
; 0000 0094             if ((parcom <= MAX_TEMP) && (parcom >= MIN_TEMP))
	LDS  R26,_parcom
	LDS  R27,_parcom+1
	CPI  R26,LOW(0x6F5)
	LDI  R30,HIGH(0x6F5)
	CPC  R27,R30
	BRSH _0x16
	CPI  R26,LOW(0x30C)
	LDI  R30,HIGH(0x30C)
	CPC  R27,R30
	BRSH _0x17
_0x16:
	RJMP _0x15
_0x17:
; 0000 0095             {
; 0000 0096                 targetTempInBuffer = parcom;
	LDS  R30,_parcom
	LDS  R31,_parcom+1
	STS  _targetTempInBuffer,R30
	STS  _targetTempInBuffer+1,R31
; 0000 0097             }
; 0000 0098             break;
_0x15:
	RJMP _0x5
; 0000 0099         case 0xcb:
_0x14:
	CPI  R30,LOW(0xCB)
	BRNE _0x18
; 0000 009A             clearframe();
	CALL _clearframe
; 0000 009B             break;
	RJMP _0x5
; 0000 009C         //Init command - initialize MCU
; 0000 009D         case 0xdb:
_0x18:
	CPI  R30,LOW(0xDB)
	BRNE _0x1A
; 0000 009E             initCamera();
	RCALL _initCamera
; 0000 009F             break;
; 0000 00A0         default:
_0x1A:
; 0000 00A1             break;
; 0000 00A2     }
_0x5:
; 0000 00A3     PCMSK0 = 0x20;
	LDI  R30,LOW(32)
	STS  107,R30
; 0000 00A4 }
	LD   R30,Y+
	OUT  SREG,R30
	LD   R31,Y+
	LD   R30,Y+
	LD   R27,Y+
	LD   R26,Y+
	LD   R25,Y+
	LD   R24,Y+
	LD   R23,Y+
	LD   R22,Y+
	LD   R15,Y+
	LD   R1,Y+
	LD   R0,Y+
	RETI
;
;/* Init DS18B20 */
;void initDS12B20(void)
; 0000 00A8 {
_initDS12B20:
; 0000 00A9 	PORTB &= ~0x04;
	CBI  0x5,2
; 0000 00AA     zad2(1);
	LDI  R26,LOW(1)
	LDI  R27,0
	CALL _zad2
; 0000 00AB     PORTB |= 0x04;
	SBI  0x5,2
; 0000 00AC     DDRB = 0x13;
	LDI  R30,LOW(19)
	OUT  0x4,R30
; 0000 00AD     zad2(1);
	LDI  R26,LOW(1)
	LDI  R27,0
	CALL _zad2
; 0000 00AE     DDRB = 0x17;
	LDI  R30,LOW(23)
	OUT  0x4,R30
; 0000 00AF 	//skip ROM
; 0000 00B0     wbyte(0xcc);
	LDI  R26,LOW(204)
	RCALL _wbyte
; 0000 00B1 	// write on scratchPad
; 0000 00B2     wbyte(0x4e);
	LDI  R26,LOW(78)
	RCALL _wbyte
; 0000 00B3 	// User byte 0 - Unused
; 0000 00B4 	wbyte(0x00);
	LDI  R26,LOW(0)
	RCALL _wbyte
; 0000 00B5 	// User byte 1 - Unused
; 0000 00B6 	wbyte(0x00);
	LDI  R26,LOW(0)
	RCALL _wbyte
; 0000 00B7 	// set up en 12 bits (0x7F)
; 0000 00B8 	wbyte(0x7f);
	LDI  R26,LOW(127)
	RCALL _wbyte
; 0000 00B9 }
	RET
;
;/* Read sensor temperature */
;void readDS12B20(void)
; 0000 00BD {
_readDS12B20:
; 0000 00BE     uint16_t temperature = 0, fract = 0;
; 0000 00BF     uint8_t sign = 0;
; 0000 00C0 
; 0000 00C1     cmdReceived = FALSE;
	CALL __SAVELOCR6
;	temperature -> R16,R17
;	fract -> R18,R19
;	sign -> R21
	__GETWRN 16,17,0
	__GETWRN 18,19,0
	LDI  R21,0
	LDI  R30,LOW(0)
	STS  _cmdReceived,R30
; 0000 00C2 
; 0000 00C3     PORTB &= ~0x04;
	CBI  0x5,2
; 0000 00C4     zad2(1);
	LDI  R26,LOW(1)
	LDI  R27,0
	CALL _zad2
; 0000 00C5     PORTB |= 0x04;
	SBI  0x5,2
; 0000 00C6     DDRB = 0x13;
	LDI  R30,LOW(19)
	OUT  0x4,R30
; 0000 00C7     zad2(1);
	LDI  R26,LOW(1)
	LDI  R27,0
	CALL _zad2
; 0000 00C8     DDRB = 0x17;
	LDI  R30,LOW(23)
	OUT  0x4,R30
; 0000 00C9     //skip ROM
; 0000 00CA     wbyte(0xcc);
	LDI  R26,LOW(204)
	RCALL _wbyte
; 0000 00CB     //get data
; 0000 00CC     wbyte(0xbe);
	LDI  R26,LOW(190)
	RCALL _wbyte
; 0000 00CD 
; 0000 00CE     temperature = rbyte();
	RCALL _rbyte
	MOV  R16,R30
	CLR  R17
; 0000 00CF     temperature = temperature + 256*rbyte();
	RCALL _rbyte
	MOV  R31,R30
	LDI  R30,0
	__ADDWRR 16,17,30,31
; 0000 00D0 
; 0000 00D1     if ((temperature & 0x8000) != 0x00)
	SBRS R17,7
	RJMP _0x1B
; 0000 00D2 	{
; 0000 00D3 		sign = 1;
	LDI  R21,LOW(1)
; 0000 00D4 		temperature = 0xffff - temperature + 1;
	LDI  R30,LOW(65535)
	LDI  R31,HIGH(65535)
	SUB  R30,R16
	SBC  R31,R17
	ADIW R30,1
	MOVW R16,R30
; 0000 00D5 	}
; 0000 00D6 	else
	RJMP _0x1C
_0x1B:
; 0000 00D7     {
; 0000 00D8         sign = 0;
	LDI  R21,LOW(0)
; 0000 00D9     }
_0x1C:
; 0000 00DA 	fract = 0;
	__GETWRN 18,19,0
; 0000 00DB 	if ((temperature & 0x01) != 0x00)
	SBRS R16,0
	RJMP _0x1D
; 0000 00DC     {
; 0000 00DD         fract=fract+65;
	__ADDWRN 18,19,65
; 0000 00DE     }
; 0000 00DF 	if ((temperature & 0x02) != 0x00)
_0x1D:
	SBRS R16,1
	RJMP _0x1E
; 0000 00E0     {
; 0000 00E1         fract=fract+125;
	__ADDWRN 18,19,125
; 0000 00E2     }
; 0000 00E3 	if ((temperature & 0x04) != 0x00)
_0x1E:
	SBRS R16,2
	RJMP _0x1F
; 0000 00E4     {
; 0000 00E5         fract=fract+250;
	__ADDWRN 18,19,250
; 0000 00E6     }
; 0000 00E7 	if ((temperature & 0x08) != 0x00)
_0x1F:
	SBRS R16,3
	RJMP _0x20
; 0000 00E8     {
; 0000 00E9         fract=fract+500;
	__ADDWRN 18,19,500
; 0000 00EA     }
; 0000 00EB 	temperature = (temperature >> 4) * 10 + fract / 100;
_0x20:
	MOVW R30,R16
	CALL __LSRW4
	LDI  R26,LOW(10)
	LDI  R27,HIGH(10)
	CALL __MULW12U
	MOVW R22,R30
	MOVW R26,R18
	LDI  R30,LOW(100)
	LDI  R31,HIGH(100)
	CALL __DIVW21U
	ADD  R30,R22
	ADC  R31,R23
	MOVW R16,R30
; 0000 00EC 	if (sign == 1)
	CPI  R21,1
	BRNE _0x21
; 0000 00ED     {
; 0000 00EE         temperature = TEMP_OFFSET - temperature;
	LDI  R30,LOW(1280)
	LDI  R31,HIGH(1280)
	SUB  R30,R16
	SBC  R31,R17
	MOVW R16,R30
; 0000 00EF     }
; 0000 00F0 	else
	RJMP _0x22
_0x21:
; 0000 00F1     {
; 0000 00F2         temperature = temperature + TEMP_OFFSET;
	__ADDWRN 16,17,1280
; 0000 00F3     }
_0x22:
; 0000 00F4 
; 0000 00F5     PORTB &= ~0x04;
	CBI  0x5,2
; 0000 00F6     zad2(1);
	LDI  R26,LOW(1)
	LDI  R27,0
	CALL _zad2
; 0000 00F7     PORTB |= 0x04;
	SBI  0x5,2
; 0000 00F8     DDRB = 0x13;
	LDI  R30,LOW(19)
	OUT  0x4,R30
; 0000 00F9     zad2(1);
	LDI  R26,LOW(1)
	LDI  R27,0
	CALL _zad2
; 0000 00FA     DDRB = 0x17;
	LDI  R30,LOW(23)
	OUT  0x4,R30
; 0000 00FB     //skip ROM
; 0000 00FC     wbyte(0xcc);
	LDI  R26,LOW(204)
	RCALL _wbyte
; 0000 00FD     //start conversion
; 0000 00FE     wbyte(0x44);
	LDI  R26,LOW(68)
	RCALL _wbyte
; 0000 00FF 
; 0000 0100     //if interrupt occurs during temperature sensor reading - discard this reading
; 0000 0101     if (cmdReceived == FALSE)
	LDS  R30,_cmdReceived
	CPI  R30,0
	BRNE _0x23
; 0000 0102     {
; 0000 0103         //there is no error in temperature reading
; 0000 0104         if ((temperature != 0x0000) && (temperature != 0xffff))
	CLR  R0
	CP   R0,R16
	CPC  R0,R17
	BREQ _0x25
	LDI  R30,LOW(65535)
	LDI  R31,HIGH(65535)
	CP   R30,R16
	CPC  R31,R17
	BRNE _0x26
_0x25:
	RJMP _0x24
_0x26:
; 0000 0105         {
; 0000 0106             sensorTemp = temperature;
	__PUTWMRN _sensorTemp,0,16,17
; 0000 0107         }
; 0000 0108     }
_0x24:
; 0000 0109 }
_0x23:
	CALL __LOADLOCR6
	ADIW R28,6
	RET
;
;void reset(void)
; 0000 010C {
_reset:
; 0000 010D     PORTB &= ~0x04;
	CBI  0x5,2
; 0000 010E     zad2(1);
	LDI  R26,LOW(1)
	LDI  R27,0
	CALL _zad2
; 0000 010F     PORTB |= 0x04;
	SBI  0x5,2
; 0000 0110     DDRB = 0x13;
	LDI  R30,LOW(19)
	OUT  0x4,R30
; 0000 0111     zad2(1);
	LDI  R26,LOW(1)
	LDI  R27,0
	CALL _zad2
; 0000 0112     DDRB = 0x17;
	LDI  R30,LOW(23)
	OUT  0x4,R30
; 0000 0113     wbyte(0xcc);
	LDI  R26,LOW(204)
	RCALL _wbyte
; 0000 0114     zad2(1);
	LDI  R26,LOW(1)
	LDI  R27,0
	CALL _zad2
; 0000 0115     wbyte(0x4e);
	LDI  R26,LOW(78)
	RCALL _wbyte
; 0000 0116     wbyte(0x00);
	LDI  R26,LOW(0)
	RCALL _wbyte
; 0000 0117     wbyte(0x00);
	LDI  R26,LOW(0)
	RCALL _wbyte
; 0000 0118     wbyte(0x7f);
	LDI  R26,LOW(127)
	RCALL _wbyte
; 0000 0119     zad2(1);
	LDI  R26,LOW(1)
	LDI  R27,0
	CALL _zad2
; 0000 011A }
	RET
;
;void wbyte(uint8_t byte)
; 0000 011D {
_wbyte:
; 0000 011E     uint8_t i, j, buf;
; 0000 011F     buf = byte;
	ST   -Y,R26
	CALL __SAVELOCR4
;	byte -> Y+4
;	i -> R17
;	j -> R16
;	buf -> R19
	LDD  R19,Y+4
; 0000 0120     for (i = 0; i < 8; i++)
	LDI  R17,LOW(0)
_0x28:
	CPI  R17,8
	BRSH _0x29
; 0000 0121     {
; 0000 0122         PORTB &= ~0x04;
	CBI  0x5,2
; 0000 0123         for (j = 0; j < 2; j++)
	LDI  R16,LOW(0)
_0x2B:
	CPI  R16,2
	BRSH _0x2C
; 0000 0124         {
; 0000 0125             ;
; 0000 0126         }
	SUBI R16,-1
	RJMP _0x2B
_0x2C:
; 0000 0127         PORTB |= ((buf & 1) << 2) & 0x04;
	IN   R30,0x5
	MOV  R26,R30
	MOV  R30,R19
	ANDI R30,LOW(0x1)
	LSL  R30
	LSL  R30
	ANDI R30,LOW(0x4)
	OR   R30,R26
	OUT  0x5,R30
; 0000 0128         for (j = 0; j < 50; j++)
	LDI  R16,LOW(0)
_0x2E:
	CPI  R16,50
	BRSH _0x2F
; 0000 0129         {
; 0000 012A             ;
; 0000 012B         }
	SUBI R16,-1
	RJMP _0x2E
_0x2F:
; 0000 012C         PORTB |= 0x04;
	SBI  0x5,2
; 0000 012D         for (j = 0; j < 100; j++)
	LDI  R16,LOW(0)
_0x31:
	CPI  R16,100
	BRSH _0x32
; 0000 012E         {
; 0000 012F             ;
; 0000 0130         }
	SUBI R16,-1
	RJMP _0x31
_0x32:
; 0000 0131         buf = buf >> 1;
	LSR  R19
; 0000 0132     }
	SUBI R17,-1
	RJMP _0x28
_0x29:
; 0000 0133 }
	CALL __LOADLOCR4
	ADIW R28,5
	RET
;
;uint8_t rbyte(void)
; 0000 0136 {
_rbyte:
; 0000 0137     uint8_t i, j, buf = 0;
; 0000 0138     for (i = 0; i < 8; i++)
	CALL __SAVELOCR4
;	i -> R17
;	j -> R16
;	buf -> R19
	LDI  R19,0
	LDI  R17,LOW(0)
_0x34:
	CPI  R17,8
	BRSH _0x35
; 0000 0139     {
; 0000 013A         buf = buf >> 1;
	LSR  R19
; 0000 013B         PORTB &= ~0x04;
	CBI  0x5,2
; 0000 013C         for (j = 0; j < 2; j++)
	LDI  R16,LOW(0)
_0x37:
	CPI  R16,2
	BRSH _0x38
; 0000 013D         {
; 0000 013E             ;
; 0000 013F         }
	SUBI R16,-1
	RJMP _0x37
_0x38:
; 0000 0140         PORTB |= 0x04;
	SBI  0x5,2
; 0000 0141         DDRB = 0x13;
	LDI  R30,LOW(19)
	OUT  0x4,R30
; 0000 0142         for (j = 0; j < 12; j++)
	LDI  R16,LOW(0)
_0x3A:
	CPI  R16,12
	BRSH _0x3B
; 0000 0143         {
; 0000 0144             ;
; 0000 0145         }
	SUBI R16,-1
	RJMP _0x3A
_0x3B:
; 0000 0146         buf |= (PINB & 0x04)<< 5;
	IN   R30,0x3
	ANDI R30,LOW(0x4)
	SWAP R30
	ANDI R30,0xF0
	LSL  R30
	OR   R19,R30
; 0000 0147         for (j = 0; j < 30; j++)
	LDI  R16,LOW(0)
_0x3D:
	CPI  R16,30
	BRSH _0x3E
; 0000 0148         {
; 0000 0149             ;
; 0000 014A         }
	SUBI R16,-1
	RJMP _0x3D
_0x3E:
; 0000 014B         DDRB = 0x17;
	LDI  R30,LOW(23)
	OUT  0x4,R30
; 0000 014C         for (j = 0; j < 100; j++)
	LDI  R16,LOW(0)
_0x40:
	CPI  R16,100
	BRSH _0x41
; 0000 014D         {
; 0000 014E             ;
; 0000 014F         }
	SUBI R16,-1
	RJMP _0x40
_0x41:
; 0000 0150     }
	SUBI R17,-1
	RJMP _0x34
_0x35:
; 0000 0151     return(buf);
	MOV  R30,R19
	CALL __LOADLOCR4
	ADIW R28,4
	RET
; 0000 0152 }
;
;void PIDLoop (void)
; 0000 0155 {
_PIDLoop:
; 0000 0156     double U = 0.0;
; 0000 0157     double E = 0.0;
; 0000 0158     while (1)
	SBIW R28,8
	LDI  R30,LOW(0)
	ST   Y,R30
	STD  Y+1,R30
	STD  Y+2,R30
	STD  Y+3,R30
	STD  Y+4,R30
	STD  Y+5,R30
	STD  Y+6,R30
	STD  Y+7,R30
;	U -> Y+4
;	E -> Y+0
_0x42:
; 0000 0159     {
; 0000 015A         readDS12B20();
	RCALL _readDS12B20
; 0000 015B 
; 0000 015C         if (coolerOn == FALSE)
	LDS  R30,_coolerOn
	CPI  R30,0
	BRNE _0x45
; 0000 015D         {
; 0000 015E             coolerPower=0x00;
	LDI  R30,LOW(0)
	STS  _coolerPower,R30
; 0000 015F             U=0.0;
	__CLRD1S 4
; 0000 0160             E=0.0;
	CALL __CLRD1S0
; 0000 0161             PORTB &=~0x01;
	CBI  0x5,0
; 0000 0162             delay_ms(CYCLE);
	LDI  R26,LOW(1020)
	LDI  R27,HIGH(1020)
	CALL _delay_ms
; 0000 0163         }
; 0000 0164         else
	RJMP _0x46
_0x45:
; 0000 0165         {
; 0000 0166             E = (double)sensorTemp - (double)targetTemp;
	LDS  R30,_sensorTemp
	LDS  R31,_sensorTemp+1
	CLR  R22
	CLR  R23
	CALL __CDF1
	MOVW R26,R30
	MOVW R24,R22
	LDS  R30,_targetTemp
	LDS  R31,_targetTemp+1
	CLR  R22
	CLR  R23
	CALL __CDF1
	CALL __SWAPD12
	CALL __SUBF12
	CALL __PUTD1S0
; 0000 0167             U = U + KP * E;
	__GETD2N 0x3D23D70A
	CALL __MULF12
	__GETD2S 4
	CALL __ADDF12
	__PUTD1S 4
; 0000 0168             if (U > CYCLE)
	__GETD2S 4
	__GETD1N 0x447F0000
	CALL __CMPF12
	BREQ PC+2
	BRCC PC+3
	JMP  _0x47
; 0000 0169             {
; 0000 016A                 U = CYCLE;
	__PUTD1S 4
; 0000 016B             }
; 0000 016C             if (U <= 0.0)
_0x47:
	__GETD2S 4
	CALL __CPD02
	BRLT _0x48
; 0000 016D             {
; 0000 016E                 U = 0.0;
	LDI  R30,LOW(0)
	__CLRD1S 4
; 0000 016F             }
; 0000 0170             if (U > 0.0)
_0x48:
	__GETD2S 4
	CALL __CPD02
	BRGE _0x49
; 0000 0171             {
; 0000 0172                 PORTB |= 0x01;
	SBI  0x5,0
; 0000 0173             }
; 0000 0174             delay_ms(U);
_0x49:
	__GETD1S 4
	CALL __CFD1U
	MOVW R26,R30
	CALL _delay_ms
; 0000 0175             if (((uint16_t) U)!=CYCLE)
	__GETD1S 4
	CALL __CFD1U
	CPI  R30,LOW(0x3FC)
	LDI  R26,HIGH(0x3FC)
	CPC  R31,R26
	BREQ _0x4A
; 0000 0176             {
; 0000 0177                 PORTB &=~0x01;
	CBI  0x5,0
; 0000 0178             }
; 0000 0179             delay_ms(CYCLE-U);
_0x4A:
	__GETD2S 4
	__GETD1N 0x447F0000
	CALL __SUBF12
	CALL __CFD1U
	MOVW R26,R30
	CALL _delay_ms
; 0000 017A             coolerPower=((uint8_t)(U/4));
	__GETD2S 4
	__GETD1N 0x40800000
	CALL __DIVF21
	CALL __CFD1U
	STS  _coolerPower,R30
; 0000 017B         }
_0x46:
; 0000 017C         //critical section
; 0000 017D         #asm("cli");
	cli
; 0000 017E         sensorTempOutBuffer = sensorTemp;
	LDS  R30,_sensorTemp
	LDS  R31,_sensorTemp+1
	STS  _sensorTempOutBuffer,R30
	STS  _sensorTempOutBuffer+1,R31
; 0000 017F         coolerPowerOutBuffer = coolerPower;
	LDS  R30,_coolerPower
	STS  _coolerPowerOutBuffer,R30
; 0000 0180         coolerOn = coolerOnInBuffer;
	LDS  R30,_coolerOnInBuffer
	STS  _coolerOn,R30
; 0000 0181         targetTemp = targetTempInBuffer;
	LDS  R30,_targetTempInBuffer
	LDS  R31,_targetTempInBuffer+1
	STS  _targetTemp,R30
	STS  _targetTemp+1,R31
; 0000 0182         #asm("sei");
	sei
; 0000 0183     }
	RJMP _0x42
; 0000 0184 }
;
;void initCamera (void)
; 0000 0187 {
_initCamera:
; 0000 0188     //8MHz
; 0000 0189     CLKPR = 0x80;
	LDI  R30,LOW(128)
	STS  97,R30
; 0000 018A     CLKPR = 0x00;
	LDI  R30,LOW(0)
	STS  97,R30
; 0000 018B 
; 0000 018C     command = 0;
	STS  _command,R30
; 0000 018D     parcom = 0;
	STS  _parcom,R30
	STS  _parcom+1,R30
; 0000 018E     k0 = 0x14;
	LDI  R30,LOW(20)
	MOV  R5,R30
; 0000 018F     k1 = 0x2a;
	LDI  R30,LOW(42)
	MOV  R4,R30
; 0000 0190     bining = 0;
	CLR  R12
; 0000 0191     y0 = 0;
	LDI  R30,LOW(0)
	STS  _y0,R30
	STS  _y0+1,R30
; 0000 0192     dy = 1000;
	LDI  R30,LOW(1000)
	LDI  R31,HIGH(1000)
	STS  _dy,R30
	STS  _dy+1,R31
; 0000 0193     expoz = 0;
	LDI  R30,LOW(0)
	STS  _expoz,R30
	STS  _expoz+1,R30
; 0000 0194     cmdReceived = FALSE;
	STS  _cmdReceived,R30
; 0000 0195 
; 0000 0196     DDRB = 0x17;
	LDI  R30,LOW(23)
	OUT  0x4,R30
; 0000 0197     PORTB = 0x04;
	LDI  R30,LOW(4)
	OUT  0x5,R30
; 0000 0198     DDRD = 0xff;
	LDI  R30,LOW(255)
	OUT  0xA,R30
; 0000 0199     PORTD = 0xcf;
	LDI  R30,LOW(207)
	OUT  0xB,R30
; 0000 019A     DDRC = 0x3f;
	LDI  R30,LOW(63)
	OUT  0x7,R30
; 0000 019B     PORTC = 0x00;
	LDI  R30,LOW(0)
	OUT  0x8,R30
; 0000 019C 
; 0000 019D     reset();
	RCALL _reset
; 0000 019E 
; 0000 019F     shift3();
	CALL _shift3
; 0000 01A0     clearframe();
	CALL _clearframe
; 0000 01A1 }
	RET
;
;void main(void)
; 0000 01A4 {
_main:
; 0000 01A5     initCamera();
	RCALL _initCamera
; 0000 01A6 
; 0000 01A7     //init cooler basic variables
; 0000 01A8     sensorTemp = TEMP_OFFSET;
	LDI  R30,LOW(1280)
	LDI  R31,HIGH(1280)
	STS  _sensorTemp,R30
	STS  _sensorTemp+1,R31
; 0000 01A9     targetTemp = FACTORY_TARGET_TEMP;
	LDI  R30,LOW(1730)
	LDI  R31,HIGH(1730)
	STS  _targetTemp,R30
	STS  _targetTemp+1,R31
; 0000 01AA     coolerOn = FALSE;
	LDI  R30,LOW(0)
	STS  _coolerOn,R30
; 0000 01AB     coolerPower = 0;
	STS  _coolerPower,R30
; 0000 01AC 
; 0000 01AD     //init temperature sensor, perform first reading
; 0000 01AE     initDS12B20();
	RCALL _initDS12B20
; 0000 01AF     readDS12B20();
	RCALL _readDS12B20
; 0000 01B0     delay_ms(1200);
	LDI  R26,LOW(1200)
	LDI  R27,HIGH(1200)
	CALL _delay_ms
; 0000 01B1     readDS12B20();
	RCALL _readDS12B20
; 0000 01B2     delay_ms(1200);
	LDI  R26,LOW(1200)
	LDI  R27,HIGH(1200)
	CALL _delay_ms
; 0000 01B3 
; 0000 01B4     //populate buffer
; 0000 01B5     sensorTempOutBuffer = sensorTemp;
	LDS  R30,_sensorTemp
	LDS  R31,_sensorTemp+1
	STS  _sensorTempOutBuffer,R30
	STS  _sensorTempOutBuffer+1,R31
; 0000 01B6     targetTempInBuffer = targetTemp;
	LDS  R30,_targetTemp
	LDS  R31,_targetTemp+1
	STS  _targetTempInBuffer,R30
	STS  _targetTempInBuffer+1,R31
; 0000 01B7     coolerOnInBuffer = coolerOn;
	LDS  R30,_coolerOn
	STS  _coolerOnInBuffer,R30
; 0000 01B8     coolerPowerOutBuffer = coolerPower;;
	LDS  R30,_coolerPower
	STS  _coolerPowerOutBuffer,R30
; 0000 01B9 
; 0000 01BA     // set PCIE0 to enable PCMSK0 scan
; 0000 01BB     PCICR = 0x01;
	LDI  R30,LOW(1)
	STS  104,R30
; 0000 01BC     // set PCINT5 to trigger an interrupt on state change
; 0000 01BD     PCMSK0 = 0x20;
	LDI  R30,LOW(32)
	STS  107,R30
; 0000 01BE     // turn on interrupts
; 0000 01BF     #asm("sei");
	sei
; 0000 01C0 
; 0000 01C1     PIDLoop();
	RCALL _PIDLoop
; 0000 01C2 }
_0x4B:
	RJMP _0x4B
;
;void frame(void)
; 0000 01C5 {
_frame:
; 0000 01C6     uint16_t y;
; 0000 01C7 
; 0000 01C8     // turn off cooling
; 0000 01C9     PORTB &=~0x01;
	ST   -Y,R17
	ST   -Y,R16
;	y -> R16,R17
	CBI  0x5,0
; 0000 01CA     if (expoz > 55)
	LDS  R26,_expoz
	LDS  R27,_expoz+1
	SBIW R26,56
	BRLO _0x4C
; 0000 01CB     {
; 0000 01CC         if (expoz <= 1000)
	LDS  R26,_expoz
	LDS  R27,_expoz+1
	CPI  R26,LOW(0x3E9)
	LDI  R30,HIGH(0x3E9)
	CPC  R27,R30
	BRSH _0x4D
; 0000 01CD         {
; 0000 01CE             shift3();
	CALL _shift3
; 0000 01CF         }
; 0000 01D0         zad2(expoz-55);
_0x4D:
	LDS  R26,_expoz
	LDS  R27,_expoz+1
	SBIW R26,55
	CALL _zad2
; 0000 01D1         clearline();
	CALL _clearline
; 0000 01D2         clearframe();
	CALL _clearframe
; 0000 01D3     }
; 0000 01D4     else
	RJMP _0x4E
_0x4C:
; 0000 01D5     {
; 0000 01D6         clearline();
	CALL _clearline
; 0000 01D7         clearframe();
	CALL _clearframe
; 0000 01D8         shift3();
	CALL _shift3
; 0000 01D9         zad2(expoz);
	LDS  R26,_expoz
	LDS  R27,_expoz+1
	CALL _zad2
; 0000 01DA     }
_0x4E:
; 0000 01DB 
; 0000 01DC     shift2();
	CALL _shift2
; 0000 01DD 
; 0000 01DE     //сброс первых 24 строк+ ROI и очистка горизонтального регистра
; 0000 01DF     y = 10+y0;
	LDS  R30,_y0
	LDS  R31,_y0+1
	ADIW R30,10
	MOVW R16,R30
; 0000 01E0     do
_0x50:
; 0000 01E1     {
; 0000 01E2         shift();
	CALL _shift
; 0000 01E3     } while (--y);
	MOVW R30,R16
	SBIW R30,1
	MOVW R16,R30
	BRNE _0x50
; 0000 01E4     clearline();
	CALL _clearline
; 0000 01E5     //дл€ выравнивани€ €ркости 1 строки
; 0000 01E6     shift();
	CALL _shift
; 0000 01E7     clearline();
	CALL _clearline
; 0000 01E8 
; 0000 01E9     y = dy;
	__GETWRMN 16,17,0,_dy
; 0000 01EA     k0 = 0x14;
	LDI  R30,LOW(20)
	MOV  R5,R30
; 0000 01EB     k8 = 0x28;
	LDI  R30,LOW(40)
	MOV  R13,R30
; 0000 01EC     do
_0x53:
; 0000 01ED     {
; 0000 01EE         shift();
	CALL _shift
; 0000 01EF         k0 = 0x14;
	LDI  R30,LOW(20)
	MOV  R5,R30
; 0000 01F0         //выключен s2, нет импульсов записи
; 0000 01F1         k1 = 0x28;
	LDI  R30,LOW(40)
	MOV  R4,R30
; 0000 01F2         k2 = 0x14;
	LDI  R30,LOW(20)
	MOV  R7,R30
; 0000 01F3         k3 = 0x28;
	LDI  R30,LOW(40)
	MOV  R6,R30
; 0000 01F4         k4 = 0x14;
	LDI  R30,LOW(20)
	MOV  R9,R30
; 0000 01F5         k5 = 0x28;
	LDI  R30,LOW(40)
	MOV  R8,R30
; 0000 01F6         k6 = 0x14;
	LDI  R30,LOW(20)
	MOV  R11,R30
; 0000 01F7         k7 = 0x28;
	LDI  R30,LOW(40)
	MOV  R10,R30
; 0000 01F8         pixel40
	OUT  0x8,R5
	OUT  0x8,R4
	OUT  0x8,R7
	OUT  0x8,R6
	OUT  0x8,R9
	OUT  0x8,R8
	OUT  0x8,R11
	OUT  0x8,R10
	OUT  0x8,R5
	OUT  0x8,R4
	OUT  0x8,R7
	OUT  0x8,R6
	OUT  0x8,R9
	OUT  0x8,R8
	OUT  0x8,R11
	OUT  0x8,R10
	OUT  0x8,R5
	OUT  0x8,R4
	OUT  0x8,R7
	OUT  0x8,R6
	OUT  0x8,R9
	OUT  0x8,R8
	OUT  0x8,R11
	OUT  0x8,R10
	OUT  0x8,R5
	OUT  0x8,R4
	OUT  0x8,R7
	OUT  0x8,R6
	OUT  0x8,R9
	OUT  0x8,R8
	OUT  0x8,R11
	OUT  0x8,R10
	OUT  0x8,R5
	OUT  0x8,R4
	OUT  0x8,R7
	OUT  0x8,R6
	OUT  0x8,R9
	OUT  0x8,R8
	OUT  0x8,R11
	OUT  0x8,R10
	OUT  0x8,R5
	OUT  0x8,R4
	OUT  0x8,R7
	OUT  0x8,R6
	OUT  0x8,R9
	OUT  0x8,R8
	OUT  0x8,R11
	OUT  0x8,R10
	OUT  0x8,R5
	OUT  0x8,R4
	OUT  0x8,R7
	OUT  0x8,R6
	OUT  0x8,R9
	OUT  0x8,R8
	OUT  0x8,R11
	OUT  0x8,R10
	OUT  0x8,R5
	OUT  0x8,R4
	OUT  0x8,R7
	OUT  0x8,R6
	OUT  0x8,R9
	OUT  0x8,R8
	OUT  0x8,R11
	OUT  0x8,R10
	OUT  0x8,R5
	OUT  0x8,R4
	OUT  0x8,R7
	OUT  0x8,R6
	OUT  0x8,R9
	OUT  0x8,R8
	OUT  0x8,R11
	OUT  0x8,R10
	OUT  0x8,R5
	OUT  0x8,R4
	OUT  0x8,R7
	OUT  0x8,R6
	OUT  0x8,R9
	OUT  0x8,R8
	OUT  0x8,R11
	OUT  0x8,R10
; 0000 01F9         pixel8
	OUT  0x8,R5
	OUT  0x8,R4
	OUT  0x8,R7
	OUT  0x8,R6
	OUT  0x8,R9
	OUT  0x8,R8
	OUT  0x8,R11
	OUT  0x8,R10
	OUT  0x8,R5
	OUT  0x8,R4
	OUT  0x8,R7
	OUT  0x8,R6
	OUT  0x8,R9
	OUT  0x8,R8
	OUT  0x8,R11
	OUT  0x8,R10
; 0000 01FA 
; 0000 01FB         k0 = 0x14;
	LDI  R30,LOW(20)
	MOV  R5,R30
; 0000 01FC         k1 = 0x2a;
	LDI  R30,LOW(42)
	MOV  R4,R30
; 0000 01FD         k2 = 0x14;
	LDI  R30,LOW(20)
	MOV  R7,R30
; 0000 01FE         k3 = 0x2a;
	LDI  R30,LOW(42)
	MOV  R6,R30
; 0000 01FF         k4 = 0x14;
	LDI  R30,LOW(20)
	MOV  R9,R30
; 0000 0200         k5 = 0x2a;
	LDI  R30,LOW(42)
	MOV  R8,R30
; 0000 0201         k6 = 0x14;
	LDI  R30,LOW(20)
	MOV  R11,R30
; 0000 0202         k7 = 0x2a;
	LDI  R30,LOW(42)
	MOV  R10,R30
; 0000 0203         //4 pix пустых (ad9826)
; 0000 0204         pixel4
	OUT  0x8,R5
	OUT  0x8,R4
	OUT  0x8,R7
	OUT  0x8,R6
	OUT  0x8,R9
	OUT  0x8,R8
	OUT  0x8,R11
	OUT  0x8,R10
; 0000 0205 
; 0000 0206         if (bining == FALSE)
	TST  R12
	BRNE _0x55
; 0000 0207         {
; 0000 0208             k0 = 0x14;
	LDI  R30,LOW(20)
	MOV  R5,R30
; 0000 0209             k1 = 0x2a;
	LDI  R30,LOW(42)
	MOV  R4,R30
; 0000 020A             k2 = 0x14;
	LDI  R30,LOW(20)
	MOV  R7,R30
; 0000 020B             k3 = 0x2a;
	LDI  R30,LOW(42)
	MOV  R6,R30
; 0000 020C             k4 = 0x14;
	LDI  R30,LOW(20)
	MOV  R9,R30
; 0000 020D             k5 = 0x2a;
	LDI  R30,LOW(42)
	MOV  R8,R30
; 0000 020E             k6 = 0x14;
	LDI  R30,LOW(20)
	RJMP _0x8A
; 0000 020F             k7 = 0x2a;
; 0000 0210         } else
_0x55:
; 0000 0211         {
; 0000 0212             k0 = 0x14;
	LDI  R30,LOW(20)
	MOV  R5,R30
; 0000 0213             k1 = 0x2a;
	LDI  R30,LOW(42)
	MOV  R4,R30
; 0000 0214             k2 = 0x1a;
	LDI  R30,LOW(26)
	MOV  R7,R30
; 0000 0215             k3 = 0x2a;
	LDI  R30,LOW(42)
	MOV  R6,R30
; 0000 0216             k4 = 0x1a;
	LDI  R30,LOW(26)
	MOV  R9,R30
; 0000 0217             k5 = 0x2a;
	LDI  R30,LOW(42)
	MOV  R8,R30
; 0000 0218             k6 = 0x1a;
	LDI  R30,LOW(26)
_0x8A:
	MOV  R11,R30
; 0000 0219             k7 = 0x2a;
	LDI  R30,LOW(42)
	MOV  R10,R30
; 0000 021A         }
; 0000 021B         pixel1000
	OUT  0x8,R5
	OUT  0x8,R4
	OUT  0x8,R7
	OUT  0x8,R6
	OUT  0x8,R9
	OUT  0x8,R8
	OUT  0x8,R11
	OUT  0x8,R10
	OUT  0x8,R5
	OUT  0x8,R4
	OUT  0x8,R7
	OUT  0x8,R6
	OUT  0x8,R9
	OUT  0x8,R8
	OUT  0x8,R11
	OUT  0x8,R10
	OUT  0x8,R5
	OUT  0x8,R4
	OUT  0x8,R7
	OUT  0x8,R6
	OUT  0x8,R9
	OUT  0x8,R8
	OUT  0x8,R11
	OUT  0x8,R10
	OUT  0x8,R5
	OUT  0x8,R4
	OUT  0x8,R7
	OUT  0x8,R6
	OUT  0x8,R9
	OUT  0x8,R8
	OUT  0x8,R11
	OUT  0x8,R10
	OUT  0x8,R5
	OUT  0x8,R4
	OUT  0x8,R7
	OUT  0x8,R6
	OUT  0x8,R9
	OUT  0x8,R8
	OUT  0x8,R11
	OUT  0x8,R10
	OUT  0x8,R5
	OUT  0x8,R4
	OUT  0x8,R7
	OUT  0x8,R6
	OUT  0x8,R9
	OUT  0x8,R8
	OUT  0x8,R11
	OUT  0x8,R10
	OUT  0x8,R5
	OUT  0x8,R4
	OUT  0x8,R7
	OUT  0x8,R6
	OUT  0x8,R9
	OUT  0x8,R8
	OUT  0x8,R11
	OUT  0x8,R10
	OUT  0x8,R5
	OUT  0x8,R4
	OUT  0x8,R7
	OUT  0x8,R6
	OUT  0x8,R9
	OUT  0x8,R8
	OUT  0x8,R11
	OUT  0x8,R10
	OUT  0x8,R5
	OUT  0x8,R4
	OUT  0x8,R7
	OUT  0x8,R6
	OUT  0x8,R9
	OUT  0x8,R8
	OUT  0x8,R11
	OUT  0x8,R10
	OUT  0x8,R5
	OUT  0x8,R4
	OUT  0x8,R7
	OUT  0x8,R6
	OUT  0x8,R9
	OUT  0x8,R8
	OUT  0x8,R11
	OUT  0x8,R10
	OUT  0x8,R5
	OUT  0x8,R4
	OUT  0x8,R7
	OUT  0x8,R6
	OUT  0x8,R9
	OUT  0x8,R8
	OUT  0x8,R11
	OUT  0x8,R10
	OUT  0x8,R5
	OUT  0x8,R4
	OUT  0x8,R7
	OUT  0x8,R6
	OUT  0x8,R9
	OUT  0x8,R8
	OUT  0x8,R11
	OUT  0x8,R10
	OUT  0x8,R5
	OUT  0x8,R4
	OUT  0x8,R7
	OUT  0x8,R6
	OUT  0x8,R9
	OUT  0x8,R8
	OUT  0x8,R11
	OUT  0x8,R10
	OUT  0x8,R5
	OUT  0x8,R4
	OUT  0x8,R7
	OUT  0x8,R6
	OUT  0x8,R9
	OUT  0x8,R8
	OUT  0x8,R11
	OUT  0x8,R10
	OUT  0x8,R5
	OUT  0x8,R4
	OUT  0x8,R7
	OUT  0x8,R6
	OUT  0x8,R9
	OUT  0x8,R8
	OUT  0x8,R11
	OUT  0x8,R10
	OUT  0x8,R5
	OUT  0x8,R4
	OUT  0x8,R7
	OUT  0x8,R6
	OUT  0x8,R9
	OUT  0x8,R8
	OUT  0x8,R11
	OUT  0x8,R10
	OUT  0x8,R5
	OUT  0x8,R4
	OUT  0x8,R7
	OUT  0x8,R6
	OUT  0x8,R9
	OUT  0x8,R8
	OUT  0x8,R11
	OUT  0x8,R10
	OUT  0x8,R5
	OUT  0x8,R4
	OUT  0x8,R7
	OUT  0x8,R6
	OUT  0x8,R9
	OUT  0x8,R8
	OUT  0x8,R11
	OUT  0x8,R10
	OUT  0x8,R5
	OUT  0x8,R4
	OUT  0x8,R7
	OUT  0x8,R6
	OUT  0x8,R9
	OUT  0x8,R8
	OUT  0x8,R11
	OUT  0x8,R10
	OUT  0x8,R5
	OUT  0x8,R4
	OUT  0x8,R7
	OUT  0x8,R6
	OUT  0x8,R9
	OUT  0x8,R8
	OUT  0x8,R11
	OUT  0x8,R10
	OUT  0x8,R5
	OUT  0x8,R4
	OUT  0x8,R7
	OUT  0x8,R6
	OUT  0x8,R9
	OUT  0x8,R8
	OUT  0x8,R11
	OUT  0x8,R10
	OUT  0x8,R5
	OUT  0x8,R4
	OUT  0x8,R7
	OUT  0x8,R6
	OUT  0x8,R9
	OUT  0x8,R8
	OUT  0x8,R11
	OUT  0x8,R10
	OUT  0x8,R5
	OUT  0x8,R4
	OUT  0x8,R7
	OUT  0x8,R6
	OUT  0x8,R9
	OUT  0x8,R8
	OUT  0x8,R11
	OUT  0x8,R10
	OUT  0x8,R5
	OUT  0x8,R4
	OUT  0x8,R7
	OUT  0x8,R6
	OUT  0x8,R9
	OUT  0x8,R8
	OUT  0x8,R11
	OUT  0x8,R10
	OUT  0x8,R5
	OUT  0x8,R4
	OUT  0x8,R7
	OUT  0x8,R6
	OUT  0x8,R9
	OUT  0x8,R8
	OUT  0x8,R11
	OUT  0x8,R10
	OUT  0x8,R5
	OUT  0x8,R4
	OUT  0x8,R7
	OUT  0x8,R6
	OUT  0x8,R9
	OUT  0x8,R8
	OUT  0x8,R11
	OUT  0x8,R10
	OUT  0x8,R5
	OUT  0x8,R4
	OUT  0x8,R7
	OUT  0x8,R6
	OUT  0x8,R9
	OUT  0x8,R8
	OUT  0x8,R11
	OUT  0x8,R10
	OUT  0x8,R5
	OUT  0x8,R4
	OUT  0x8,R7
	OUT  0x8,R6
	OUT  0x8,R9
	OUT  0x8,R8
	OUT  0x8,R11
	OUT  0x8,R10
	OUT  0x8,R5
	OUT  0x8,R4
	OUT  0x8,R7
	OUT  0x8,R6
	OUT  0x8,R9
	OUT  0x8,R8
	OUT  0x8,R11
	OUT  0x8,R10
	OUT  0x8,R5
	OUT  0x8,R4
	OUT  0x8,R7
	OUT  0x8,R6
	OUT  0x8,R9
	OUT  0x8,R8
	OUT  0x8,R11
	OUT  0x8,R10
	OUT  0x8,R5
	OUT  0x8,R4
	OUT  0x8,R7
	OUT  0x8,R6
	OUT  0x8,R9
	OUT  0x8,R8
	OUT  0x8,R11
	OUT  0x8,R10
	OUT  0x8,R5
	OUT  0x8,R4
	OUT  0x8,R7
	OUT  0x8,R6
	OUT  0x8,R9
	OUT  0x8,R8
	OUT  0x8,R11
	OUT  0x8,R10
	OUT  0x8,R5
	OUT  0x8,R4
	OUT  0x8,R7
	OUT  0x8,R6
	OUT  0x8,R9
	OUT  0x8,R8
	OUT  0x8,R11
	OUT  0x8,R10
	OUT  0x8,R5
	OUT  0x8,R4
	OUT  0x8,R7
	OUT  0x8,R6
	OUT  0x8,R9
	OUT  0x8,R8
	OUT  0x8,R11
	OUT  0x8,R10
	OUT  0x8,R5
	OUT  0x8,R4
	OUT  0x8,R7
	OUT  0x8,R6
	OUT  0x8,R9
	OUT  0x8,R8
	OUT  0x8,R11
	OUT  0x8,R10
	OUT  0x8,R5
	OUT  0x8,R4
	OUT  0x8,R7
	OUT  0x8,R6
	OUT  0x8,R9
	OUT  0x8,R8
	OUT  0x8,R11
	OUT  0x8,R10
	OUT  0x8,R5
	OUT  0x8,R4
	OUT  0x8,R7
	OUT  0x8,R6
	OUT  0x8,R9
	OUT  0x8,R8
	OUT  0x8,R11
	OUT  0x8,R10
	OUT  0x8,R5
	OUT  0x8,R4
	OUT  0x8,R7
	OUT  0x8,R6
	OUT  0x8,R9
	OUT  0x8,R8
	OUT  0x8,R11
	OUT  0x8,R10
	OUT  0x8,R5
	OUT  0x8,R4
	OUT  0x8,R7
	OUT  0x8,R6
	OUT  0x8,R9
	OUT  0x8,R8
	OUT  0x8,R11
	OUT  0x8,R10
	OUT  0x8,R5
	OUT  0x8,R4
	OUT  0x8,R7
	OUT  0x8,R6
	OUT  0x8,R9
	OUT  0x8,R8
	OUT  0x8,R11
	OUT  0x8,R10
	OUT  0x8,R5
	OUT  0x8,R4
	OUT  0x8,R7
	OUT  0x8,R6
	OUT  0x8,R9
	OUT  0x8,R8
	OUT  0x8,R11
	OUT  0x8,R10
	OUT  0x8,R5
	OUT  0x8,R4
	OUT  0x8,R7
	OUT  0x8,R6
	OUT  0x8,R9
	OUT  0x8,R8
	OUT  0x8,R11
	OUT  0x8,R10
	OUT  0x8,R5
	OUT  0x8,R4
	OUT  0x8,R7
	OUT  0x8,R6
	OUT  0x8,R9
	OUT  0x8,R8
	OUT  0x8,R11
	OUT  0x8,R10
	OUT  0x8,R5
	OUT  0x8,R4
	OUT  0x8,R7
	OUT  0x8,R6
	OUT  0x8,R9
	OUT  0x8,R8
	OUT  0x8,R11
	OUT  0x8,R10
	OUT  0x8,R5
	OUT  0x8,R4
	OUT  0x8,R7
	OUT  0x8,R6
	OUT  0x8,R9
	OUT  0x8,R8
	OUT  0x8,R11
	OUT  0x8,R10
	OUT  0x8,R5
	OUT  0x8,R4
	OUT  0x8,R7
	OUT  0x8,R6
	OUT  0x8,R9
	OUT  0x8,R8
	OUT  0x8,R11
	OUT  0x8,R10
	OUT  0x8,R5
	OUT  0x8,R4
	OUT  0x8,R7
	OUT  0x8,R6
	OUT  0x8,R9
	OUT  0x8,R8
	OUT  0x8,R11
	OUT  0x8,R10
	OUT  0x8,R5
	OUT  0x8,R4
	OUT  0x8,R7
	OUT  0x8,R6
	OUT  0x8,R9
	OUT  0x8,R8
	OUT  0x8,R11
	OUT  0x8,R10
	OUT  0x8,R5
	OUT  0x8,R4
	OUT  0x8,R7
	OUT  0x8,R6
	OUT  0x8,R9
	OUT  0x8,R8
	OUT  0x8,R11
	OUT  0x8,R10
	OUT  0x8,R5
	OUT  0x8,R4
	OUT  0x8,R7
	OUT  0x8,R6
	OUT  0x8,R9
	OUT  0x8,R8
	OUT  0x8,R11
	OUT  0x8,R10
	OUT  0x8,R5
	OUT  0x8,R4
	OUT  0x8,R7
	OUT  0x8,R6
	OUT  0x8,R9
	OUT  0x8,R8
	OUT  0x8,R11
	OUT  0x8,R10
	OUT  0x8,R5
	OUT  0x8,R4
	OUT  0x8,R7
	OUT  0x8,R6
	OUT  0x8,R9
	OUT  0x8,R8
	OUT  0x8,R11
	OUT  0x8,R10
	OUT  0x8,R5
	OUT  0x8,R4
	OUT  0x8,R7
	OUT  0x8,R6
	OUT  0x8,R9
	OUT  0x8,R8
	OUT  0x8,R11
	OUT  0x8,R10
	OUT  0x8,R5
	OUT  0x8,R4
	OUT  0x8,R7
	OUT  0x8,R6
	OUT  0x8,R9
	OUT  0x8,R8
	OUT  0x8,R11
	OUT  0x8,R10
	OUT  0x8,R5
	OUT  0x8,R4
	OUT  0x8,R7
	OUT  0x8,R6
	OUT  0x8,R9
	OUT  0x8,R8
	OUT  0x8,R11
	OUT  0x8,R10
	OUT  0x8,R5
	OUT  0x8,R4
	OUT  0x8,R7
	OUT  0x8,R6
	OUT  0x8,R9
	OUT  0x8,R8
	OUT  0x8,R11
	OUT  0x8,R10
	OUT  0x8,R5
	OUT  0x8,R4
	OUT  0x8,R7
	OUT  0x8,R6
	OUT  0x8,R9
	OUT  0x8,R8
	OUT  0x8,R11
	OUT  0x8,R10
	OUT  0x8,R5
	OUT  0x8,R4
	OUT  0x8,R7
	OUT  0x8,R6
	OUT  0x8,R9
	OUT  0x8,R8
	OUT  0x8,R11
	OUT  0x8,R10
	OUT  0x8,R5
	OUT  0x8,R4
	OUT  0x8,R7
	OUT  0x8,R6
	OUT  0x8,R9
	OUT  0x8,R8
	OUT  0x8,R11
	OUT  0x8,R10
	OUT  0x8,R5
	OUT  0x8,R4
	OUT  0x8,R7
	OUT  0x8,R6
	OUT  0x8,R9
	OUT  0x8,R8
	OUT  0x8,R11
	OUT  0x8,R10
	OUT  0x8,R5
	OUT  0x8,R4
	OUT  0x8,R7
	OUT  0x8,R6
	OUT  0x8,R9
	OUT  0x8,R8
	OUT  0x8,R11
	OUT  0x8,R10
	OUT  0x8,R5
	OUT  0x8,R4
	OUT  0x8,R7
	OUT  0x8,R6
	OUT  0x8,R9
	OUT  0x8,R8
	OUT  0x8,R11
	OUT  0x8,R10
	OUT  0x8,R5
	OUT  0x8,R4
	OUT  0x8,R7
	OUT  0x8,R6
	OUT  0x8,R9
	OUT  0x8,R8
	OUT  0x8,R11
	OUT  0x8,R10
	OUT  0x8,R5
	OUT  0x8,R4
	OUT  0x8,R7
	OUT  0x8,R6
	OUT  0x8,R9
	OUT  0x8,R8
	OUT  0x8,R11
	OUT  0x8,R10
	OUT  0x8,R5
	OUT  0x8,R4
	OUT  0x8,R7
	OUT  0x8,R6
	OUT  0x8,R9
	OUT  0x8,R8
	OUT  0x8,R11
	OUT  0x8,R10
	OUT  0x8,R5
	OUT  0x8,R4
	OUT  0x8,R7
	OUT  0x8,R6
	OUT  0x8,R9
	OUT  0x8,R8
	OUT  0x8,R11
	OUT  0x8,R10
	OUT  0x8,R5
	OUT  0x8,R4
	OUT  0x8,R7
	OUT  0x8,R6
	OUT  0x8,R9
	OUT  0x8,R8
	OUT  0x8,R11
	OUT  0x8,R10
	OUT  0x8,R5
	OUT  0x8,R4
	OUT  0x8,R7
	OUT  0x8,R6
	OUT  0x8,R9
	OUT  0x8,R8
	OUT  0x8,R11
	OUT  0x8,R10
	OUT  0x8,R5
	OUT  0x8,R4
	OUT  0x8,R7
	OUT  0x8,R6
	OUT  0x8,R9
	OUT  0x8,R8
	OUT  0x8,R11
	OUT  0x8,R10
	OUT  0x8,R5
	OUT  0x8,R4
	OUT  0x8,R7
	OUT  0x8,R6
	OUT  0x8,R9
	OUT  0x8,R8
	OUT  0x8,R11
	OUT  0x8,R10
	OUT  0x8,R5
	OUT  0x8,R4
	OUT  0x8,R7
	OUT  0x8,R6
	OUT  0x8,R9
	OUT  0x8,R8
	OUT  0x8,R11
	OUT  0x8,R10
	OUT  0x8,R5
	OUT  0x8,R4
	OUT  0x8,R7
	OUT  0x8,R6
	OUT  0x8,R9
	OUT  0x8,R8
	OUT  0x8,R11
	OUT  0x8,R10
	OUT  0x8,R5
	OUT  0x8,R4
	OUT  0x8,R7
	OUT  0x8,R6
	OUT  0x8,R9
	OUT  0x8,R8
	OUT  0x8,R11
	OUT  0x8,R10
	OUT  0x8,R5
	OUT  0x8,R4
	OUT  0x8,R7
	OUT  0x8,R6
	OUT  0x8,R9
	OUT  0x8,R8
	OUT  0x8,R11
	OUT  0x8,R10
	OUT  0x8,R5
	OUT  0x8,R4
	OUT  0x8,R7
	OUT  0x8,R6
	OUT  0x8,R9
	OUT  0x8,R8
	OUT  0x8,R11
	OUT  0x8,R10
	OUT  0x8,R5
	OUT  0x8,R4
	OUT  0x8,R7
	OUT  0x8,R6
	OUT  0x8,R9
	OUT  0x8,R8
	OUT  0x8,R11
	OUT  0x8,R10
	OUT  0x8,R5
	OUT  0x8,R4
	OUT  0x8,R7
	OUT  0x8,R6
	OUT  0x8,R9
	OUT  0x8,R8
	OUT  0x8,R11
	OUT  0x8,R10
	OUT  0x8,R5
	OUT  0x8,R4
	OUT  0x8,R7
	OUT  0x8,R6
	OUT  0x8,R9
	OUT  0x8,R8
	OUT  0x8,R11
	OUT  0x8,R10
	OUT  0x8,R5
	OUT  0x8,R4
	OUT  0x8,R7
	OUT  0x8,R6
	OUT  0x8,R9
	OUT  0x8,R8
	OUT  0x8,R11
	OUT  0x8,R10
	OUT  0x8,R5
	OUT  0x8,R4
	OUT  0x8,R7
	OUT  0x8,R6
	OUT  0x8,R9
	OUT  0x8,R8
	OUT  0x8,R11
	OUT  0x8,R10
	OUT  0x8,R5
	OUT  0x8,R4
	OUT  0x8,R7
	OUT  0x8,R6
	OUT  0x8,R9
	OUT  0x8,R8
	OUT  0x8,R11
	OUT  0x8,R10
	OUT  0x8,R5
	OUT  0x8,R4
	OUT  0x8,R7
	OUT  0x8,R6
	OUT  0x8,R9
	OUT  0x8,R8
	OUT  0x8,R11
	OUT  0x8,R10
	OUT  0x8,R5
	OUT  0x8,R4
	OUT  0x8,R7
	OUT  0x8,R6
	OUT  0x8,R9
	OUT  0x8,R8
	OUT  0x8,R11
	OUT  0x8,R10
	OUT  0x8,R5
	OUT  0x8,R4
	OUT  0x8,R7
	OUT  0x8,R6
	OUT  0x8,R9
	OUT  0x8,R8
	OUT  0x8,R11
	OUT  0x8,R10
	OUT  0x8,R5
	OUT  0x8,R4
	OUT  0x8,R7
	OUT  0x8,R6
	OUT  0x8,R9
	OUT  0x8,R8
	OUT  0x8,R11
	OUT  0x8,R10
	OUT  0x8,R5
	OUT  0x8,R4
	OUT  0x8,R7
	OUT  0x8,R6
	OUT  0x8,R9
	OUT  0x8,R8
	OUT  0x8,R11
	OUT  0x8,R10
	OUT  0x8,R5
	OUT  0x8,R4
	OUT  0x8,R7
	OUT  0x8,R6
	OUT  0x8,R9
	OUT  0x8,R8
	OUT  0x8,R11
	OUT  0x8,R10
	OUT  0x8,R5
	OUT  0x8,R4
	OUT  0x8,R7
	OUT  0x8,R6
	OUT  0x8,R9
	OUT  0x8,R8
	OUT  0x8,R11
	OUT  0x8,R10
	OUT  0x8,R5
	OUT  0x8,R4
	OUT  0x8,R7
	OUT  0x8,R6
	OUT  0x8,R9
	OUT  0x8,R8
	OUT  0x8,R11
	OUT  0x8,R10
	OUT  0x8,R5
	OUT  0x8,R4
	OUT  0x8,R7
	OUT  0x8,R6
	OUT  0x8,R9
	OUT  0x8,R8
	OUT  0x8,R11
	OUT  0x8,R10
	OUT  0x8,R5
	OUT  0x8,R4
	OUT  0x8,R7
	OUT  0x8,R6
	OUT  0x8,R9
	OUT  0x8,R8
	OUT  0x8,R11
	OUT  0x8,R10
	OUT  0x8,R5
	OUT  0x8,R4
	OUT  0x8,R7
	OUT  0x8,R6
	OUT  0x8,R9
	OUT  0x8,R8
	OUT  0x8,R11
	OUT  0x8,R10
	OUT  0x8,R5
	OUT  0x8,R4
	OUT  0x8,R7
	OUT  0x8,R6
	OUT  0x8,R9
	OUT  0x8,R8
	OUT  0x8,R11
	OUT  0x8,R10
	OUT  0x8,R5
	OUT  0x8,R4
	OUT  0x8,R7
	OUT  0x8,R6
	OUT  0x8,R9
	OUT  0x8,R8
	OUT  0x8,R11
	OUT  0x8,R10
	OUT  0x8,R5
	OUT  0x8,R4
	OUT  0x8,R7
	OUT  0x8,R6
	OUT  0x8,R9
	OUT  0x8,R8
	OUT  0x8,R11
	OUT  0x8,R10
	OUT  0x8,R5
	OUT  0x8,R4
	OUT  0x8,R7
	OUT  0x8,R6
	OUT  0x8,R9
	OUT  0x8,R8
	OUT  0x8,R11
	OUT  0x8,R10
	OUT  0x8,R5
	OUT  0x8,R4
	OUT  0x8,R7
	OUT  0x8,R6
	OUT  0x8,R9
	OUT  0x8,R8
	OUT  0x8,R11
	OUT  0x8,R10
	OUT  0x8,R5
	OUT  0x8,R4
	OUT  0x8,R7
	OUT  0x8,R6
	OUT  0x8,R9
	OUT  0x8,R8
	OUT  0x8,R11
	OUT  0x8,R10
	OUT  0x8,R5
	OUT  0x8,R4
	OUT  0x8,R7
	OUT  0x8,R6
	OUT  0x8,R9
	OUT  0x8,R8
	OUT  0x8,R11
	OUT  0x8,R10
	OUT  0x8,R5
	OUT  0x8,R4
	OUT  0x8,R7
	OUT  0x8,R6
	OUT  0x8,R9
	OUT  0x8,R8
	OUT  0x8,R11
	OUT  0x8,R10
	OUT  0x8,R5
	OUT  0x8,R4
	OUT  0x8,R7
	OUT  0x8,R6
	OUT  0x8,R9
	OUT  0x8,R8
	OUT  0x8,R11
	OUT  0x8,R10
	OUT  0x8,R5
	OUT  0x8,R4
	OUT  0x8,R7
	OUT  0x8,R6
	OUT  0x8,R9
	OUT  0x8,R8
	OUT  0x8,R11
	OUT  0x8,R10
	OUT  0x8,R5
	OUT  0x8,R4
	OUT  0x8,R7
	OUT  0x8,R6
	OUT  0x8,R9
	OUT  0x8,R8
	OUT  0x8,R11
	OUT  0x8,R10
	OUT  0x8,R5
	OUT  0x8,R4
	OUT  0x8,R7
	OUT  0x8,R6
	OUT  0x8,R9
	OUT  0x8,R8
	OUT  0x8,R11
	OUT  0x8,R10
	OUT  0x8,R5
	OUT  0x8,R4
	OUT  0x8,R7
	OUT  0x8,R6
	OUT  0x8,R9
	OUT  0x8,R8
	OUT  0x8,R11
	OUT  0x8,R10
	OUT  0x8,R5
	OUT  0x8,R4
	OUT  0x8,R7
	OUT  0x8,R6
	OUT  0x8,R9
	OUT  0x8,R8
	OUT  0x8,R11
	OUT  0x8,R10
	OUT  0x8,R5
	OUT  0x8,R4
	OUT  0x8,R7
	OUT  0x8,R6
	OUT  0x8,R9
	OUT  0x8,R8
	OUT  0x8,R11
	OUT  0x8,R10
	OUT  0x8,R5
	OUT  0x8,R4
	OUT  0x8,R7
	OUT  0x8,R6
	OUT  0x8,R9
	OUT  0x8,R8
	OUT  0x8,R11
	OUT  0x8,R10
	OUT  0x8,R5
	OUT  0x8,R4
	OUT  0x8,R7
	OUT  0x8,R6
	OUT  0x8,R9
	OUT  0x8,R8
	OUT  0x8,R11
	OUT  0x8,R10
	OUT  0x8,R5
	OUT  0x8,R4
	OUT  0x8,R7
	OUT  0x8,R6
	OUT  0x8,R9
	OUT  0x8,R8
	OUT  0x8,R11
	OUT  0x8,R10
	OUT  0x8,R5
	OUT  0x8,R4
	OUT  0x8,R7
	OUT  0x8,R6
	OUT  0x8,R9
	OUT  0x8,R8
	OUT  0x8,R11
	OUT  0x8,R10
	OUT  0x8,R5
	OUT  0x8,R4
	OUT  0x8,R7
	OUT  0x8,R6
	OUT  0x8,R9
	OUT  0x8,R8
	OUT  0x8,R11
	OUT  0x8,R10
	OUT  0x8,R5
	OUT  0x8,R4
	OUT  0x8,R7
	OUT  0x8,R6
	OUT  0x8,R9
	OUT  0x8,R8
	OUT  0x8,R11
	OUT  0x8,R10
	OUT  0x8,R5
	OUT  0x8,R4
	OUT  0x8,R7
	OUT  0x8,R6
	OUT  0x8,R9
	OUT  0x8,R8
	OUT  0x8,R11
	OUT  0x8,R10
	OUT  0x8,R5
	OUT  0x8,R4
	OUT  0x8,R7
	OUT  0x8,R6
	OUT  0x8,R9
	OUT  0x8,R8
	OUT  0x8,R11
	OUT  0x8,R10
	OUT  0x8,R5
	OUT  0x8,R4
	OUT  0x8,R7
	OUT  0x8,R6
	OUT  0x8,R9
	OUT  0x8,R8
	OUT  0x8,R11
	OUT  0x8,R10
	OUT  0x8,R5
	OUT  0x8,R4
	OUT  0x8,R7
	OUT  0x8,R6
	OUT  0x8,R9
	OUT  0x8,R8
	OUT  0x8,R11
	OUT  0x8,R10
	OUT  0x8,R5
	OUT  0x8,R4
	OUT  0x8,R7
	OUT  0x8,R6
	OUT  0x8,R9
	OUT  0x8,R8
	OUT  0x8,R11
	OUT  0x8,R10
	OUT  0x8,R5
	OUT  0x8,R4
	OUT  0x8,R7
	OUT  0x8,R6
	OUT  0x8,R9
	OUT  0x8,R8
	OUT  0x8,R11
	OUT  0x8,R10
	OUT  0x8,R5
	OUT  0x8,R4
	OUT  0x8,R7
	OUT  0x8,R6
	OUT  0x8,R9
	OUT  0x8,R8
	OUT  0x8,R11
	OUT  0x8,R10
	OUT  0x8,R5
	OUT  0x8,R4
	OUT  0x8,R7
	OUT  0x8,R6
	OUT  0x8,R9
	OUT  0x8,R8
	OUT  0x8,R11
	OUT  0x8,R10
	OUT  0x8,R5
	OUT  0x8,R4
	OUT  0x8,R7
	OUT  0x8,R6
	OUT  0x8,R9
	OUT  0x8,R8
	OUT  0x8,R11
	OUT  0x8,R10
	OUT  0x8,R5
	OUT  0x8,R4
	OUT  0x8,R7
	OUT  0x8,R6
	OUT  0x8,R9
	OUT  0x8,R8
	OUT  0x8,R11
	OUT  0x8,R10
	OUT  0x8,R5
	OUT  0x8,R4
	OUT  0x8,R7
	OUT  0x8,R6
	OUT  0x8,R9
	OUT  0x8,R8
	OUT  0x8,R11
	OUT  0x8,R10
	OUT  0x8,R5
	OUT  0x8,R4
	OUT  0x8,R7
	OUT  0x8,R6
	OUT  0x8,R9
	OUT  0x8,R8
	OUT  0x8,R11
	OUT  0x8,R10
	OUT  0x8,R5
	OUT  0x8,R4
	OUT  0x8,R7
	OUT  0x8,R6
	OUT  0x8,R9
	OUT  0x8,R8
	OUT  0x8,R11
	OUT  0x8,R10
	OUT  0x8,R5
	OUT  0x8,R4
	OUT  0x8,R7
	OUT  0x8,R6
	OUT  0x8,R9
	OUT  0x8,R8
	OUT  0x8,R11
	OUT  0x8,R10
	OUT  0x8,R5
	OUT  0x8,R4
	OUT  0x8,R7
	OUT  0x8,R6
	OUT  0x8,R9
	OUT  0x8,R8
	OUT  0x8,R11
	OUT  0x8,R10
	OUT  0x8,R5
	OUT  0x8,R4
	OUT  0x8,R7
	OUT  0x8,R6
	OUT  0x8,R9
	OUT  0x8,R8
	OUT  0x8,R11
	OUT  0x8,R10
	OUT  0x8,R5
	OUT  0x8,R4
	OUT  0x8,R7
	OUT  0x8,R6
	OUT  0x8,R9
	OUT  0x8,R8
	OUT  0x8,R11
	OUT  0x8,R10
	OUT  0x8,R5
	OUT  0x8,R4
	OUT  0x8,R7
	OUT  0x8,R6
	OUT  0x8,R9
	OUT  0x8,R8
	OUT  0x8,R11
	OUT  0x8,R10
	OUT  0x8,R5
	OUT  0x8,R4
	OUT  0x8,R7
	OUT  0x8,R6
	OUT  0x8,R9
	OUT  0x8,R8
	OUT  0x8,R11
	OUT  0x8,R10
	OUT  0x8,R5
	OUT  0x8,R4
	OUT  0x8,R7
	OUT  0x8,R6
	OUT  0x8,R9
	OUT  0x8,R8
	OUT  0x8,R11
	OUT  0x8,R10
	OUT  0x8,R5
	OUT  0x8,R4
	OUT  0x8,R7
	OUT  0x8,R6
	OUT  0x8,R9
	OUT  0x8,R8
	OUT  0x8,R11
	OUT  0x8,R10
	OUT  0x8,R5
	OUT  0x8,R4
	OUT  0x8,R7
	OUT  0x8,R6
	OUT  0x8,R9
	OUT  0x8,R8
	OUT  0x8,R11
	OUT  0x8,R10
	OUT  0x8,R5
	OUT  0x8,R4
	OUT  0x8,R7
	OUT  0x8,R6
	OUT  0x8,R9
	OUT  0x8,R8
	OUT  0x8,R11
	OUT  0x8,R10
	OUT  0x8,R5
	OUT  0x8,R4
	OUT  0x8,R7
	OUT  0x8,R6
	OUT  0x8,R9
	OUT  0x8,R8
	OUT  0x8,R11
	OUT  0x8,R10
	OUT  0x8,R5
	OUT  0x8,R4
	OUT  0x8,R7
	OUT  0x8,R6
	OUT  0x8,R9
	OUT  0x8,R8
	OUT  0x8,R11
	OUT  0x8,R10
	OUT  0x8,R5
	OUT  0x8,R4
	OUT  0x8,R7
	OUT  0x8,R6
	OUT  0x8,R9
	OUT  0x8,R8
	OUT  0x8,R11
	OUT  0x8,R10
	OUT  0x8,R5
	OUT  0x8,R4
	OUT  0x8,R7
	OUT  0x8,R6
	OUT  0x8,R9
	OUT  0x8,R8
	OUT  0x8,R11
	OUT  0x8,R10
	OUT  0x8,R5
	OUT  0x8,R4
	OUT  0x8,R7
	OUT  0x8,R6
	OUT  0x8,R9
	OUT  0x8,R8
	OUT  0x8,R11
	OUT  0x8,R10
	OUT  0x8,R5
	OUT  0x8,R4
	OUT  0x8,R7
	OUT  0x8,R6
	OUT  0x8,R9
	OUT  0x8,R8
	OUT  0x8,R11
	OUT  0x8,R10
	OUT  0x8,R5
	OUT  0x8,R4
	OUT  0x8,R7
	OUT  0x8,R6
	OUT  0x8,R9
	OUT  0x8,R8
	OUT  0x8,R11
	OUT  0x8,R10
	OUT  0x8,R5
	OUT  0x8,R4
	OUT  0x8,R7
	OUT  0x8,R6
	OUT  0x8,R9
	OUT  0x8,R8
	OUT  0x8,R11
	OUT  0x8,R10
	OUT  0x8,R5
	OUT  0x8,R4
	OUT  0x8,R7
	OUT  0x8,R6
	OUT  0x8,R9
	OUT  0x8,R8
	OUT  0x8,R11
	OUT  0x8,R10
	OUT  0x8,R5
	OUT  0x8,R4
	OUT  0x8,R7
	OUT  0x8,R6
	OUT  0x8,R9
	OUT  0x8,R8
	OUT  0x8,R11
	OUT  0x8,R10
	OUT  0x8,R5
	OUT  0x8,R4
	OUT  0x8,R7
	OUT  0x8,R6
	OUT  0x8,R9
	OUT  0x8,R8
	OUT  0x8,R11
	OUT  0x8,R10
	OUT  0x8,R5
	OUT  0x8,R4
	OUT  0x8,R7
	OUT  0x8,R6
	OUT  0x8,R9
	OUT  0x8,R8
	OUT  0x8,R11
	OUT  0x8,R10
	OUT  0x8,R5
	OUT  0x8,R4
	OUT  0x8,R7
	OUT  0x8,R6
	OUT  0x8,R9
	OUT  0x8,R8
	OUT  0x8,R11
	OUT  0x8,R10
	OUT  0x8,R5
	OUT  0x8,R4
	OUT  0x8,R7
	OUT  0x8,R6
	OUT  0x8,R9
	OUT  0x8,R8
	OUT  0x8,R11
	OUT  0x8,R10
	OUT  0x8,R5
	OUT  0x8,R4
	OUT  0x8,R7
	OUT  0x8,R6
	OUT  0x8,R9
	OUT  0x8,R8
	OUT  0x8,R11
	OUT  0x8,R10
	OUT  0x8,R5
	OUT  0x8,R4
	OUT  0x8,R7
	OUT  0x8,R6
	OUT  0x8,R9
	OUT  0x8,R8
	OUT  0x8,R11
	OUT  0x8,R10
	OUT  0x8,R5
	OUT  0x8,R4
	OUT  0x8,R7
	OUT  0x8,R6
	OUT  0x8,R9
	OUT  0x8,R8
	OUT  0x8,R11
	OUT  0x8,R10
	OUT  0x8,R5
	OUT  0x8,R4
	OUT  0x8,R7
	OUT  0x8,R6
	OUT  0x8,R9
	OUT  0x8,R8
	OUT  0x8,R11
	OUT  0x8,R10
	OUT  0x8,R5
	OUT  0x8,R4
	OUT  0x8,R7
	OUT  0x8,R6
	OUT  0x8,R9
	OUT  0x8,R8
	OUT  0x8,R11
	OUT  0x8,R10
	OUT  0x8,R5
	OUT  0x8,R4
	OUT  0x8,R7
	OUT  0x8,R6
	OUT  0x8,R9
	OUT  0x8,R8
	OUT  0x8,R11
	OUT  0x8,R10
	OUT  0x8,R5
	OUT  0x8,R4
	OUT  0x8,R7
	OUT  0x8,R6
	OUT  0x8,R9
	OUT  0x8,R8
	OUT  0x8,R11
	OUT  0x8,R10
	OUT  0x8,R5
	OUT  0x8,R4
	OUT  0x8,R7
	OUT  0x8,R6
	OUT  0x8,R9
	OUT  0x8,R8
	OUT  0x8,R11
	OUT  0x8,R10
	OUT  0x8,R5
	OUT  0x8,R4
	OUT  0x8,R7
	OUT  0x8,R6
	OUT  0x8,R9
	OUT  0x8,R8
	OUT  0x8,R11
	OUT  0x8,R10
	OUT  0x8,R5
	OUT  0x8,R4
	OUT  0x8,R7
	OUT  0x8,R6
	OUT  0x8,R9
	OUT  0x8,R8
	OUT  0x8,R11
	OUT  0x8,R10
	OUT  0x8,R5
	OUT  0x8,R4
	OUT  0x8,R7
	OUT  0x8,R6
	OUT  0x8,R9
	OUT  0x8,R8
	OUT  0x8,R11
	OUT  0x8,R10
	OUT  0x8,R5
	OUT  0x8,R4
	OUT  0x8,R7
	OUT  0x8,R6
	OUT  0x8,R9
	OUT  0x8,R8
	OUT  0x8,R11
	OUT  0x8,R10
	OUT  0x8,R5
	OUT  0x8,R4
	OUT  0x8,R7
	OUT  0x8,R6
	OUT  0x8,R9
	OUT  0x8,R8
	OUT  0x8,R11
	OUT  0x8,R10
	OUT  0x8,R5
	OUT  0x8,R4
	OUT  0x8,R7
	OUT  0x8,R6
	OUT  0x8,R9
	OUT  0x8,R8
	OUT  0x8,R11
	OUT  0x8,R10
	OUT  0x8,R5
	OUT  0x8,R4
	OUT  0x8,R7
	OUT  0x8,R6
	OUT  0x8,R9
	OUT  0x8,R8
	OUT  0x8,R11
	OUT  0x8,R10
	OUT  0x8,R5
	OUT  0x8,R4
	OUT  0x8,R7
	OUT  0x8,R6
	OUT  0x8,R9
	OUT  0x8,R8
	OUT  0x8,R11
	OUT  0x8,R10
	OUT  0x8,R5
	OUT  0x8,R4
	OUT  0x8,R7
	OUT  0x8,R6
	OUT  0x8,R9
	OUT  0x8,R8
	OUT  0x8,R11
	OUT  0x8,R10
	OUT  0x8,R5
	OUT  0x8,R4
	OUT  0x8,R7
	OUT  0x8,R6
	OUT  0x8,R9
	OUT  0x8,R8
	OUT  0x8,R11
	OUT  0x8,R10
	OUT  0x8,R5
	OUT  0x8,R4
	OUT  0x8,R7
	OUT  0x8,R6
	OUT  0x8,R9
	OUT  0x8,R8
	OUT  0x8,R11
	OUT  0x8,R10
	OUT  0x8,R5
	OUT  0x8,R4
	OUT  0x8,R7
	OUT  0x8,R6
	OUT  0x8,R9
	OUT  0x8,R8
	OUT  0x8,R11
	OUT  0x8,R10
	OUT  0x8,R5
	OUT  0x8,R4
	OUT  0x8,R7
	OUT  0x8,R6
	OUT  0x8,R9
	OUT  0x8,R8
	OUT  0x8,R11
	OUT  0x8,R10
	OUT  0x8,R5
	OUT  0x8,R4
	OUT  0x8,R7
	OUT  0x8,R6
	OUT  0x8,R9
	OUT  0x8,R8
	OUT  0x8,R11
	OUT  0x8,R10
	OUT  0x8,R5
	OUT  0x8,R4
	OUT  0x8,R7
	OUT  0x8,R6
	OUT  0x8,R9
	OUT  0x8,R8
	OUT  0x8,R11
	OUT  0x8,R10
	OUT  0x8,R5
	OUT  0x8,R4
	OUT  0x8,R7
	OUT  0x8,R6
	OUT  0x8,R9
	OUT  0x8,R8
	OUT  0x8,R11
	OUT  0x8,R10
	OUT  0x8,R5
	OUT  0x8,R4
	OUT  0x8,R7
	OUT  0x8,R6
	OUT  0x8,R9
	OUT  0x8,R8
	OUT  0x8,R11
	OUT  0x8,R10
	OUT  0x8,R5
	OUT  0x8,R4
	OUT  0x8,R7
	OUT  0x8,R6
	OUT  0x8,R9
	OUT  0x8,R8
	OUT  0x8,R11
	OUT  0x8,R10
	OUT  0x8,R5
	OUT  0x8,R4
	OUT  0x8,R7
	OUT  0x8,R6
	OUT  0x8,R9
	OUT  0x8,R8
	OUT  0x8,R11
	OUT  0x8,R10
	OUT  0x8,R5
	OUT  0x8,R4
	OUT  0x8,R7
	OUT  0x8,R6
	OUT  0x8,R9
	OUT  0x8,R8
	OUT  0x8,R11
	OUT  0x8,R10
	OUT  0x8,R5
	OUT  0x8,R4
	OUT  0x8,R7
	OUT  0x8,R6
	OUT  0x8,R9
	OUT  0x8,R8
	OUT  0x8,R11
	OUT  0x8,R10
	OUT  0x8,R5
	OUT  0x8,R4
	OUT  0x8,R7
	OUT  0x8,R6
	OUT  0x8,R9
	OUT  0x8,R8
	OUT  0x8,R11
	OUT  0x8,R10
	OUT  0x8,R5
	OUT  0x8,R4
	OUT  0x8,R7
	OUT  0x8,R6
	OUT  0x8,R9
	OUT  0x8,R8
	OUT  0x8,R11
	OUT  0x8,R10
	OUT  0x8,R5
	OUT  0x8,R4
	OUT  0x8,R7
	OUT  0x8,R6
	OUT  0x8,R9
	OUT  0x8,R8
	OUT  0x8,R11
	OUT  0x8,R10
	OUT  0x8,R5
	OUT  0x8,R4
	OUT  0x8,R7
	OUT  0x8,R6
	OUT  0x8,R9
	OUT  0x8,R8
	OUT  0x8,R11
	OUT  0x8,R10
	OUT  0x8,R5
	OUT  0x8,R4
	OUT  0x8,R7
	OUT  0x8,R6
	OUT  0x8,R9
	OUT  0x8,R8
	OUT  0x8,R11
	OUT  0x8,R10
	OUT  0x8,R5
	OUT  0x8,R4
	OUT  0x8,R7
	OUT  0x8,R6
	OUT  0x8,R9
	OUT  0x8,R8
	OUT  0x8,R11
	OUT  0x8,R10
	OUT  0x8,R5
	OUT  0x8,R4
	OUT  0x8,R7
	OUT  0x8,R6
	OUT  0x8,R9
	OUT  0x8,R8
	OUT  0x8,R11
	OUT  0x8,R10
	OUT  0x8,R5
	OUT  0x8,R4
	OUT  0x8,R7
	OUT  0x8,R6
	OUT  0x8,R9
	OUT  0x8,R8
	OUT  0x8,R11
	OUT  0x8,R10
	OUT  0x8,R5
	OUT  0x8,R4
	OUT  0x8,R7
	OUT  0x8,R6
	OUT  0x8,R9
	OUT  0x8,R8
	OUT  0x8,R11
	OUT  0x8,R10
	OUT  0x8,R5
	OUT  0x8,R4
	OUT  0x8,R7
	OUT  0x8,R6
	OUT  0x8,R9
	OUT  0x8,R8
	OUT  0x8,R11
	OUT  0x8,R10
	OUT  0x8,R5
	OUT  0x8,R4
	OUT  0x8,R7
	OUT  0x8,R6
	OUT  0x8,R9
	OUT  0x8,R8
	OUT  0x8,R11
	OUT  0x8,R10
	OUT  0x8,R5
	OUT  0x8,R4
	OUT  0x8,R7
	OUT  0x8,R6
	OUT  0x8,R9
	OUT  0x8,R8
	OUT  0x8,R11
	OUT  0x8,R10
	OUT  0x8,R5
	OUT  0x8,R4
	OUT  0x8,R7
	OUT  0x8,R6
	OUT  0x8,R9
	OUT  0x8,R8
	OUT  0x8,R11
	OUT  0x8,R10
	OUT  0x8,R5
	OUT  0x8,R4
	OUT  0x8,R7
	OUT  0x8,R6
	OUT  0x8,R9
	OUT  0x8,R8
	OUT  0x8,R11
	OUT  0x8,R10
	OUT  0x8,R5
	OUT  0x8,R4
	OUT  0x8,R7
	OUT  0x8,R6
	OUT  0x8,R9
	OUT  0x8,R8
	OUT  0x8,R11
	OUT  0x8,R10
	OUT  0x8,R5
	OUT  0x8,R4
	OUT  0x8,R7
	OUT  0x8,R6
	OUT  0x8,R9
	OUT  0x8,R8
	OUT  0x8,R11
	OUT  0x8,R10
	OUT  0x8,R5
	OUT  0x8,R4
	OUT  0x8,R7
	OUT  0x8,R6
	OUT  0x8,R9
	OUT  0x8,R8
	OUT  0x8,R11
	OUT  0x8,R10
	OUT  0x8,R5
	OUT  0x8,R4
	OUT  0x8,R7
	OUT  0x8,R6
	OUT  0x8,R9
	OUT  0x8,R8
	OUT  0x8,R11
	OUT  0x8,R10
	OUT  0x8,R5
	OUT  0x8,R4
	OUT  0x8,R7
	OUT  0x8,R6
	OUT  0x8,R9
	OUT  0x8,R8
	OUT  0x8,R11
	OUT  0x8,R10
	OUT  0x8,R5
	OUT  0x8,R4
	OUT  0x8,R7
	OUT  0x8,R6
	OUT  0x8,R9
	OUT  0x8,R8
	OUT  0x8,R11
	OUT  0x8,R10
	OUT  0x8,R5
	OUT  0x8,R4
	OUT  0x8,R7
	OUT  0x8,R6
	OUT  0x8,R9
	OUT  0x8,R8
	OUT  0x8,R11
	OUT  0x8,R10
	OUT  0x8,R5
	OUT  0x8,R4
	OUT  0x8,R7
	OUT  0x8,R6
	OUT  0x8,R9
	OUT  0x8,R8
	OUT  0x8,R11
	OUT  0x8,R10
	OUT  0x8,R5
	OUT  0x8,R4
	OUT  0x8,R7
	OUT  0x8,R6
	OUT  0x8,R9
	OUT  0x8,R8
	OUT  0x8,R11
	OUT  0x8,R10
	OUT  0x8,R5
	OUT  0x8,R4
	OUT  0x8,R7
	OUT  0x8,R6
	OUT  0x8,R9
	OUT  0x8,R8
	OUT  0x8,R11
	OUT  0x8,R10
	OUT  0x8,R5
	OUT  0x8,R4
	OUT  0x8,R7
	OUT  0x8,R6
	OUT  0x8,R9
	OUT  0x8,R8
	OUT  0x8,R11
	OUT  0x8,R10
	OUT  0x8,R5
	OUT  0x8,R4
	OUT  0x8,R7
	OUT  0x8,R6
	OUT  0x8,R9
	OUT  0x8,R8
	OUT  0x8,R11
	OUT  0x8,R10
	OUT  0x8,R5
	OUT  0x8,R4
	OUT  0x8,R7
	OUT  0x8,R6
	OUT  0x8,R9
	OUT  0x8,R8
	OUT  0x8,R11
	OUT  0x8,R10
	OUT  0x8,R5
	OUT  0x8,R4
	OUT  0x8,R7
	OUT  0x8,R6
	OUT  0x8,R9
	OUT  0x8,R8
	OUT  0x8,R11
	OUT  0x8,R10
	OUT  0x8,R5
	OUT  0x8,R4
	OUT  0x8,R7
	OUT  0x8,R6
	OUT  0x8,R9
	OUT  0x8,R8
	OUT  0x8,R11
	OUT  0x8,R10
	OUT  0x8,R5
	OUT  0x8,R4
	OUT  0x8,R7
	OUT  0x8,R6
	OUT  0x8,R9
	OUT  0x8,R8
	OUT  0x8,R11
	OUT  0x8,R10
	OUT  0x8,R5
	OUT  0x8,R4
	OUT  0x8,R7
	OUT  0x8,R6
	OUT  0x8,R9
	OUT  0x8,R8
	OUT  0x8,R11
	OUT  0x8,R10
	OUT  0x8,R5
	OUT  0x8,R4
	OUT  0x8,R7
	OUT  0x8,R6
	OUT  0x8,R9
	OUT  0x8,R8
	OUT  0x8,R11
	OUT  0x8,R10
	OUT  0x8,R5
	OUT  0x8,R4
	OUT  0x8,R7
	OUT  0x8,R6
	OUT  0x8,R9
	OUT  0x8,R8
	OUT  0x8,R11
	OUT  0x8,R10
	OUT  0x8,R5
	OUT  0x8,R4
	OUT  0x8,R7
	OUT  0x8,R6
	OUT  0x8,R9
	OUT  0x8,R8
	OUT  0x8,R11
	OUT  0x8,R10
	OUT  0x8,R5
	OUT  0x8,R4
	OUT  0x8,R7
	OUT  0x8,R6
	OUT  0x8,R9
	OUT  0x8,R8
	OUT  0x8,R11
	OUT  0x8,R10
	OUT  0x8,R5
	OUT  0x8,R4
	OUT  0x8,R7
	OUT  0x8,R6
	OUT  0x8,R9
	OUT  0x8,R8
	OUT  0x8,R11
	OUT  0x8,R10
	OUT  0x8,R5
	OUT  0x8,R4
	OUT  0x8,R7
	OUT  0x8,R6
	OUT  0x8,R9
	OUT  0x8,R8
	OUT  0x8,R11
	OUT  0x8,R10
	OUT  0x8,R5
	OUT  0x8,R4
	OUT  0x8,R7
	OUT  0x8,R6
	OUT  0x8,R9
	OUT  0x8,R8
	OUT  0x8,R11
	OUT  0x8,R10
	OUT  0x8,R5
	OUT  0x8,R4
	OUT  0x8,R7
	OUT  0x8,R6
	OUT  0x8,R9
	OUT  0x8,R8
	OUT  0x8,R11
	OUT  0x8,R10
	OUT  0x8,R5
	OUT  0x8,R4
	OUT  0x8,R7
	OUT  0x8,R6
	OUT  0x8,R9
	OUT  0x8,R8
	OUT  0x8,R11
	OUT  0x8,R10
	OUT  0x8,R5
	OUT  0x8,R4
	OUT  0x8,R7
	OUT  0x8,R6
	OUT  0x8,R9
	OUT  0x8,R8
	OUT  0x8,R11
	OUT  0x8,R10
	OUT  0x8,R5
	OUT  0x8,R4
	OUT  0x8,R7
	OUT  0x8,R6
	OUT  0x8,R9
	OUT  0x8,R8
	OUT  0x8,R11
	OUT  0x8,R10
	OUT  0x8,R5
	OUT  0x8,R4
	OUT  0x8,R7
	OUT  0x8,R6
	OUT  0x8,R9
	OUT  0x8,R8
	OUT  0x8,R11
	OUT  0x8,R10
	OUT  0x8,R5
	OUT  0x8,R4
	OUT  0x8,R7
	OUT  0x8,R6
	OUT  0x8,R9
	OUT  0x8,R8
	OUT  0x8,R11
	OUT  0x8,R10
	OUT  0x8,R5
	OUT  0x8,R4
	OUT  0x8,R7
	OUT  0x8,R6
	OUT  0x8,R9
	OUT  0x8,R8
	OUT  0x8,R11
	OUT  0x8,R10
	OUT  0x8,R5
	OUT  0x8,R4
	OUT  0x8,R7
	OUT  0x8,R6
	OUT  0x8,R9
	OUT  0x8,R8
	OUT  0x8,R11
	OUT  0x8,R10
	OUT  0x8,R5
	OUT  0x8,R4
	OUT  0x8,R7
	OUT  0x8,R6
	OUT  0x8,R9
	OUT  0x8,R8
	OUT  0x8,R11
	OUT  0x8,R10
	OUT  0x8,R5
	OUT  0x8,R4
	OUT  0x8,R7
	OUT  0x8,R6
	OUT  0x8,R9
	OUT  0x8,R8
	OUT  0x8,R11
	OUT  0x8,R10
	OUT  0x8,R5
	OUT  0x8,R4
	OUT  0x8,R7
	OUT  0x8,R6
	OUT  0x8,R9
	OUT  0x8,R8
	OUT  0x8,R11
	OUT  0x8,R10
	OUT  0x8,R5
	OUT  0x8,R4
	OUT  0x8,R7
	OUT  0x8,R6
	OUT  0x8,R9
	OUT  0x8,R8
	OUT  0x8,R11
	OUT  0x8,R10
	OUT  0x8,R5
	OUT  0x8,R4
	OUT  0x8,R7
	OUT  0x8,R6
	OUT  0x8,R9
	OUT  0x8,R8
	OUT  0x8,R11
	OUT  0x8,R10
	OUT  0x8,R5
	OUT  0x8,R4
	OUT  0x8,R7
	OUT  0x8,R6
	OUT  0x8,R9
	OUT  0x8,R8
	OUT  0x8,R11
	OUT  0x8,R10
	OUT  0x8,R5
	OUT  0x8,R4
	OUT  0x8,R7
	OUT  0x8,R6
	OUT  0x8,R9
	OUT  0x8,R8
	OUT  0x8,R11
	OUT  0x8,R10
	OUT  0x8,R5
	OUT  0x8,R4
	OUT  0x8,R7
	OUT  0x8,R6
	OUT  0x8,R9
	OUT  0x8,R8
	OUT  0x8,R11
	OUT  0x8,R10
	OUT  0x8,R5
	OUT  0x8,R4
	OUT  0x8,R7
	OUT  0x8,R6
	OUT  0x8,R9
	OUT  0x8,R8
	OUT  0x8,R11
	OUT  0x8,R10
	OUT  0x8,R5
	OUT  0x8,R4
	OUT  0x8,R7
	OUT  0x8,R6
	OUT  0x8,R9
	OUT  0x8,R8
	OUT  0x8,R11
	OUT  0x8,R10
	OUT  0x8,R5
	OUT  0x8,R4
	OUT  0x8,R7
	OUT  0x8,R6
	OUT  0x8,R9
	OUT  0x8,R8
	OUT  0x8,R11
	OUT  0x8,R10
	OUT  0x8,R5
	OUT  0x8,R4
	OUT  0x8,R7
	OUT  0x8,R6
	OUT  0x8,R9
	OUT  0x8,R8
	OUT  0x8,R11
	OUT  0x8,R10
	OUT  0x8,R5
	OUT  0x8,R4
	OUT  0x8,R7
	OUT  0x8,R6
	OUT  0x8,R9
	OUT  0x8,R8
	OUT  0x8,R11
	OUT  0x8,R10
	OUT  0x8,R5
	OUT  0x8,R4
	OUT  0x8,R7
	OUT  0x8,R6
	OUT  0x8,R9
	OUT  0x8,R8
	OUT  0x8,R11
	OUT  0x8,R10
	OUT  0x8,R5
	OUT  0x8,R4
	OUT  0x8,R7
	OUT  0x8,R6
	OUT  0x8,R9
	OUT  0x8,R8
	OUT  0x8,R11
	OUT  0x8,R10
	OUT  0x8,R5
	OUT  0x8,R4
	OUT  0x8,R7
	OUT  0x8,R6
	OUT  0x8,R9
	OUT  0x8,R8
	OUT  0x8,R11
	OUT  0x8,R10
	OUT  0x8,R5
	OUT  0x8,R4
	OUT  0x8,R7
	OUT  0x8,R6
	OUT  0x8,R9
	OUT  0x8,R8
	OUT  0x8,R11
	OUT  0x8,R10
	OUT  0x8,R5
	OUT  0x8,R4
	OUT  0x8,R7
	OUT  0x8,R6
	OUT  0x8,R9
	OUT  0x8,R8
	OUT  0x8,R11
	OUT  0x8,R10
	OUT  0x8,R5
	OUT  0x8,R4
	OUT  0x8,R7
	OUT  0x8,R6
	OUT  0x8,R9
	OUT  0x8,R8
	OUT  0x8,R11
	OUT  0x8,R10
	OUT  0x8,R5
	OUT  0x8,R4
	OUT  0x8,R7
	OUT  0x8,R6
	OUT  0x8,R9
	OUT  0x8,R8
	OUT  0x8,R11
	OUT  0x8,R10
	OUT  0x8,R5
	OUT  0x8,R4
	OUT  0x8,R7
	OUT  0x8,R6
	OUT  0x8,R9
	OUT  0x8,R8
	OUT  0x8,R11
	OUT  0x8,R10
	OUT  0x8,R5
	OUT  0x8,R4
	OUT  0x8,R7
	OUT  0x8,R6
	OUT  0x8,R9
	OUT  0x8,R8
	OUT  0x8,R11
	OUT  0x8,R10
	OUT  0x8,R5
	OUT  0x8,R4
	OUT  0x8,R7
	OUT  0x8,R6
	OUT  0x8,R9
	OUT  0x8,R8
	OUT  0x8,R11
	OUT  0x8,R10
	OUT  0x8,R5
	OUT  0x8,R4
	OUT  0x8,R7
	OUT  0x8,R6
	OUT  0x8,R9
	OUT  0x8,R8
	OUT  0x8,R11
	OUT  0x8,R10
	OUT  0x8,R5
	OUT  0x8,R4
	OUT  0x8,R7
	OUT  0x8,R6
	OUT  0x8,R9
	OUT  0x8,R8
	OUT  0x8,R11
	OUT  0x8,R10
; 0000 021C         pixel1000
	OUT  0x8,R5
	OUT  0x8,R4
	OUT  0x8,R7
	OUT  0x8,R6
	OUT  0x8,R9
	OUT  0x8,R8
	OUT  0x8,R11
	OUT  0x8,R10
	OUT  0x8,R5
	OUT  0x8,R4
	OUT  0x8,R7
	OUT  0x8,R6
	OUT  0x8,R9
	OUT  0x8,R8
	OUT  0x8,R11
	OUT  0x8,R10
	OUT  0x8,R5
	OUT  0x8,R4
	OUT  0x8,R7
	OUT  0x8,R6
	OUT  0x8,R9
	OUT  0x8,R8
	OUT  0x8,R11
	OUT  0x8,R10
	OUT  0x8,R5
	OUT  0x8,R4
	OUT  0x8,R7
	OUT  0x8,R6
	OUT  0x8,R9
	OUT  0x8,R8
	OUT  0x8,R11
	OUT  0x8,R10
	OUT  0x8,R5
	OUT  0x8,R4
	OUT  0x8,R7
	OUT  0x8,R6
	OUT  0x8,R9
	OUT  0x8,R8
	OUT  0x8,R11
	OUT  0x8,R10
	OUT  0x8,R5
	OUT  0x8,R4
	OUT  0x8,R7
	OUT  0x8,R6
	OUT  0x8,R9
	OUT  0x8,R8
	OUT  0x8,R11
	OUT  0x8,R10
	OUT  0x8,R5
	OUT  0x8,R4
	OUT  0x8,R7
	OUT  0x8,R6
	OUT  0x8,R9
	OUT  0x8,R8
	OUT  0x8,R11
	OUT  0x8,R10
	OUT  0x8,R5
	OUT  0x8,R4
	OUT  0x8,R7
	OUT  0x8,R6
	OUT  0x8,R9
	OUT  0x8,R8
	OUT  0x8,R11
	OUT  0x8,R10
	OUT  0x8,R5
	OUT  0x8,R4
	OUT  0x8,R7
	OUT  0x8,R6
	OUT  0x8,R9
	OUT  0x8,R8
	OUT  0x8,R11
	OUT  0x8,R10
	OUT  0x8,R5
	OUT  0x8,R4
	OUT  0x8,R7
	OUT  0x8,R6
	OUT  0x8,R9
	OUT  0x8,R8
	OUT  0x8,R11
	OUT  0x8,R10
	OUT  0x8,R5
	OUT  0x8,R4
	OUT  0x8,R7
	OUT  0x8,R6
	OUT  0x8,R9
	OUT  0x8,R8
	OUT  0x8,R11
	OUT  0x8,R10
	OUT  0x8,R5
	OUT  0x8,R4
	OUT  0x8,R7
	OUT  0x8,R6
	OUT  0x8,R9
	OUT  0x8,R8
	OUT  0x8,R11
	OUT  0x8,R10
	OUT  0x8,R5
	OUT  0x8,R4
	OUT  0x8,R7
	OUT  0x8,R6
	OUT  0x8,R9
	OUT  0x8,R8
	OUT  0x8,R11
	OUT  0x8,R10
	OUT  0x8,R5
	OUT  0x8,R4
	OUT  0x8,R7
	OUT  0x8,R6
	OUT  0x8,R9
	OUT  0x8,R8
	OUT  0x8,R11
	OUT  0x8,R10
	OUT  0x8,R5
	OUT  0x8,R4
	OUT  0x8,R7
	OUT  0x8,R6
	OUT  0x8,R9
	OUT  0x8,R8
	OUT  0x8,R11
	OUT  0x8,R10
	OUT  0x8,R5
	OUT  0x8,R4
	OUT  0x8,R7
	OUT  0x8,R6
	OUT  0x8,R9
	OUT  0x8,R8
	OUT  0x8,R11
	OUT  0x8,R10
	OUT  0x8,R5
	OUT  0x8,R4
	OUT  0x8,R7
	OUT  0x8,R6
	OUT  0x8,R9
	OUT  0x8,R8
	OUT  0x8,R11
	OUT  0x8,R10
	OUT  0x8,R5
	OUT  0x8,R4
	OUT  0x8,R7
	OUT  0x8,R6
	OUT  0x8,R9
	OUT  0x8,R8
	OUT  0x8,R11
	OUT  0x8,R10
	OUT  0x8,R5
	OUT  0x8,R4
	OUT  0x8,R7
	OUT  0x8,R6
	OUT  0x8,R9
	OUT  0x8,R8
	OUT  0x8,R11
	OUT  0x8,R10
	OUT  0x8,R5
	OUT  0x8,R4
	OUT  0x8,R7
	OUT  0x8,R6
	OUT  0x8,R9
	OUT  0x8,R8
	OUT  0x8,R11
	OUT  0x8,R10
	OUT  0x8,R5
	OUT  0x8,R4
	OUT  0x8,R7
	OUT  0x8,R6
	OUT  0x8,R9
	OUT  0x8,R8
	OUT  0x8,R11
	OUT  0x8,R10
	OUT  0x8,R5
	OUT  0x8,R4
	OUT  0x8,R7
	OUT  0x8,R6
	OUT  0x8,R9
	OUT  0x8,R8
	OUT  0x8,R11
	OUT  0x8,R10
	OUT  0x8,R5
	OUT  0x8,R4
	OUT  0x8,R7
	OUT  0x8,R6
	OUT  0x8,R9
	OUT  0x8,R8
	OUT  0x8,R11
	OUT  0x8,R10
	OUT  0x8,R5
	OUT  0x8,R4
	OUT  0x8,R7
	OUT  0x8,R6
	OUT  0x8,R9
	OUT  0x8,R8
	OUT  0x8,R11
	OUT  0x8,R10
	OUT  0x8,R5
	OUT  0x8,R4
	OUT  0x8,R7
	OUT  0x8,R6
	OUT  0x8,R9
	OUT  0x8,R8
	OUT  0x8,R11
	OUT  0x8,R10
	OUT  0x8,R5
	OUT  0x8,R4
	OUT  0x8,R7
	OUT  0x8,R6
	OUT  0x8,R9
	OUT  0x8,R8
	OUT  0x8,R11
	OUT  0x8,R10
	OUT  0x8,R5
	OUT  0x8,R4
	OUT  0x8,R7
	OUT  0x8,R6
	OUT  0x8,R9
	OUT  0x8,R8
	OUT  0x8,R11
	OUT  0x8,R10
	OUT  0x8,R5
	OUT  0x8,R4
	OUT  0x8,R7
	OUT  0x8,R6
	OUT  0x8,R9
	OUT  0x8,R8
	OUT  0x8,R11
	OUT  0x8,R10
	OUT  0x8,R5
	OUT  0x8,R4
	OUT  0x8,R7
	OUT  0x8,R6
	OUT  0x8,R9
	OUT  0x8,R8
	OUT  0x8,R11
	OUT  0x8,R10
	OUT  0x8,R5
	OUT  0x8,R4
	OUT  0x8,R7
	OUT  0x8,R6
	OUT  0x8,R9
	OUT  0x8,R8
	OUT  0x8,R11
	OUT  0x8,R10
	OUT  0x8,R5
	OUT  0x8,R4
	OUT  0x8,R7
	OUT  0x8,R6
	OUT  0x8,R9
	OUT  0x8,R8
	OUT  0x8,R11
	OUT  0x8,R10
	OUT  0x8,R5
	OUT  0x8,R4
	OUT  0x8,R7
	OUT  0x8,R6
	OUT  0x8,R9
	OUT  0x8,R8
	OUT  0x8,R11
	OUT  0x8,R10
	OUT  0x8,R5
	OUT  0x8,R4
	OUT  0x8,R7
	OUT  0x8,R6
	OUT  0x8,R9
	OUT  0x8,R8
	OUT  0x8,R11
	OUT  0x8,R10
	OUT  0x8,R5
	OUT  0x8,R4
	OUT  0x8,R7
	OUT  0x8,R6
	OUT  0x8,R9
	OUT  0x8,R8
	OUT  0x8,R11
	OUT  0x8,R10
	OUT  0x8,R5
	OUT  0x8,R4
	OUT  0x8,R7
	OUT  0x8,R6
	OUT  0x8,R9
	OUT  0x8,R8
	OUT  0x8,R11
	OUT  0x8,R10
	OUT  0x8,R5
	OUT  0x8,R4
	OUT  0x8,R7
	OUT  0x8,R6
	OUT  0x8,R9
	OUT  0x8,R8
	OUT  0x8,R11
	OUT  0x8,R10
	OUT  0x8,R5
	OUT  0x8,R4
	OUT  0x8,R7
	OUT  0x8,R6
	OUT  0x8,R9
	OUT  0x8,R8
	OUT  0x8,R11
	OUT  0x8,R10
	OUT  0x8,R5
	OUT  0x8,R4
	OUT  0x8,R7
	OUT  0x8,R6
	OUT  0x8,R9
	OUT  0x8,R8
	OUT  0x8,R11
	OUT  0x8,R10
	OUT  0x8,R5
	OUT  0x8,R4
	OUT  0x8,R7
	OUT  0x8,R6
	OUT  0x8,R9
	OUT  0x8,R8
	OUT  0x8,R11
	OUT  0x8,R10
	OUT  0x8,R5
	OUT  0x8,R4
	OUT  0x8,R7
	OUT  0x8,R6
	OUT  0x8,R9
	OUT  0x8,R8
	OUT  0x8,R11
	OUT  0x8,R10
	OUT  0x8,R5
	OUT  0x8,R4
	OUT  0x8,R7
	OUT  0x8,R6
	OUT  0x8,R9
	OUT  0x8,R8
	OUT  0x8,R11
	OUT  0x8,R10
	OUT  0x8,R5
	OUT  0x8,R4
	OUT  0x8,R7
	OUT  0x8,R6
	OUT  0x8,R9
	OUT  0x8,R8
	OUT  0x8,R11
	OUT  0x8,R10
	OUT  0x8,R5
	OUT  0x8,R4
	OUT  0x8,R7
	OUT  0x8,R6
	OUT  0x8,R9
	OUT  0x8,R8
	OUT  0x8,R11
	OUT  0x8,R10
	OUT  0x8,R5
	OUT  0x8,R4
	OUT  0x8,R7
	OUT  0x8,R6
	OUT  0x8,R9
	OUT  0x8,R8
	OUT  0x8,R11
	OUT  0x8,R10
	OUT  0x8,R5
	OUT  0x8,R4
	OUT  0x8,R7
	OUT  0x8,R6
	OUT  0x8,R9
	OUT  0x8,R8
	OUT  0x8,R11
	OUT  0x8,R10
	OUT  0x8,R5
	OUT  0x8,R4
	OUT  0x8,R7
	OUT  0x8,R6
	OUT  0x8,R9
	OUT  0x8,R8
	OUT  0x8,R11
	OUT  0x8,R10
	OUT  0x8,R5
	OUT  0x8,R4
	OUT  0x8,R7
	OUT  0x8,R6
	OUT  0x8,R9
	OUT  0x8,R8
	OUT  0x8,R11
	OUT  0x8,R10
	OUT  0x8,R5
	OUT  0x8,R4
	OUT  0x8,R7
	OUT  0x8,R6
	OUT  0x8,R9
	OUT  0x8,R8
	OUT  0x8,R11
	OUT  0x8,R10
	OUT  0x8,R5
	OUT  0x8,R4
	OUT  0x8,R7
	OUT  0x8,R6
	OUT  0x8,R9
	OUT  0x8,R8
	OUT  0x8,R11
	OUT  0x8,R10
	OUT  0x8,R5
	OUT  0x8,R4
	OUT  0x8,R7
	OUT  0x8,R6
	OUT  0x8,R9
	OUT  0x8,R8
	OUT  0x8,R11
	OUT  0x8,R10
	OUT  0x8,R5
	OUT  0x8,R4
	OUT  0x8,R7
	OUT  0x8,R6
	OUT  0x8,R9
	OUT  0x8,R8
	OUT  0x8,R11
	OUT  0x8,R10
	OUT  0x8,R5
	OUT  0x8,R4
	OUT  0x8,R7
	OUT  0x8,R6
	OUT  0x8,R9
	OUT  0x8,R8
	OUT  0x8,R11
	OUT  0x8,R10
	OUT  0x8,R5
	OUT  0x8,R4
	OUT  0x8,R7
	OUT  0x8,R6
	OUT  0x8,R9
	OUT  0x8,R8
	OUT  0x8,R11
	OUT  0x8,R10
	OUT  0x8,R5
	OUT  0x8,R4
	OUT  0x8,R7
	OUT  0x8,R6
	OUT  0x8,R9
	OUT  0x8,R8
	OUT  0x8,R11
	OUT  0x8,R10
	OUT  0x8,R5
	OUT  0x8,R4
	OUT  0x8,R7
	OUT  0x8,R6
	OUT  0x8,R9
	OUT  0x8,R8
	OUT  0x8,R11
	OUT  0x8,R10
	OUT  0x8,R5
	OUT  0x8,R4
	OUT  0x8,R7
	OUT  0x8,R6
	OUT  0x8,R9
	OUT  0x8,R8
	OUT  0x8,R11
	OUT  0x8,R10
	OUT  0x8,R5
	OUT  0x8,R4
	OUT  0x8,R7
	OUT  0x8,R6
	OUT  0x8,R9
	OUT  0x8,R8
	OUT  0x8,R11
	OUT  0x8,R10
	OUT  0x8,R5
	OUT  0x8,R4
	OUT  0x8,R7
	OUT  0x8,R6
	OUT  0x8,R9
	OUT  0x8,R8
	OUT  0x8,R11
	OUT  0x8,R10
	OUT  0x8,R5
	OUT  0x8,R4
	OUT  0x8,R7
	OUT  0x8,R6
	OUT  0x8,R9
	OUT  0x8,R8
	OUT  0x8,R11
	OUT  0x8,R10
	OUT  0x8,R5
	OUT  0x8,R4
	OUT  0x8,R7
	OUT  0x8,R6
	OUT  0x8,R9
	OUT  0x8,R8
	OUT  0x8,R11
	OUT  0x8,R10
	OUT  0x8,R5
	OUT  0x8,R4
	OUT  0x8,R7
	OUT  0x8,R6
	OUT  0x8,R9
	OUT  0x8,R8
	OUT  0x8,R11
	OUT  0x8,R10
	OUT  0x8,R5
	OUT  0x8,R4
	OUT  0x8,R7
	OUT  0x8,R6
	OUT  0x8,R9
	OUT  0x8,R8
	OUT  0x8,R11
	OUT  0x8,R10
	OUT  0x8,R5
	OUT  0x8,R4
	OUT  0x8,R7
	OUT  0x8,R6
	OUT  0x8,R9
	OUT  0x8,R8
	OUT  0x8,R11
	OUT  0x8,R10
	OUT  0x8,R5
	OUT  0x8,R4
	OUT  0x8,R7
	OUT  0x8,R6
	OUT  0x8,R9
	OUT  0x8,R8
	OUT  0x8,R11
	OUT  0x8,R10
	OUT  0x8,R5
	OUT  0x8,R4
	OUT  0x8,R7
	OUT  0x8,R6
	OUT  0x8,R9
	OUT  0x8,R8
	OUT  0x8,R11
	OUT  0x8,R10
	OUT  0x8,R5
	OUT  0x8,R4
	OUT  0x8,R7
	OUT  0x8,R6
	OUT  0x8,R9
	OUT  0x8,R8
	OUT  0x8,R11
	OUT  0x8,R10
	OUT  0x8,R5
	OUT  0x8,R4
	OUT  0x8,R7
	OUT  0x8,R6
	OUT  0x8,R9
	OUT  0x8,R8
	OUT  0x8,R11
	OUT  0x8,R10
	OUT  0x8,R5
	OUT  0x8,R4
	OUT  0x8,R7
	OUT  0x8,R6
	OUT  0x8,R9
	OUT  0x8,R8
	OUT  0x8,R11
	OUT  0x8,R10
	OUT  0x8,R5
	OUT  0x8,R4
	OUT  0x8,R7
	OUT  0x8,R6
	OUT  0x8,R9
	OUT  0x8,R8
	OUT  0x8,R11
	OUT  0x8,R10
	OUT  0x8,R5
	OUT  0x8,R4
	OUT  0x8,R7
	OUT  0x8,R6
	OUT  0x8,R9
	OUT  0x8,R8
	OUT  0x8,R11
	OUT  0x8,R10
	OUT  0x8,R5
	OUT  0x8,R4
	OUT  0x8,R7
	OUT  0x8,R6
	OUT  0x8,R9
	OUT  0x8,R8
	OUT  0x8,R11
	OUT  0x8,R10
	OUT  0x8,R5
	OUT  0x8,R4
	OUT  0x8,R7
	OUT  0x8,R6
	OUT  0x8,R9
	OUT  0x8,R8
	OUT  0x8,R11
	OUT  0x8,R10
	OUT  0x8,R5
	OUT  0x8,R4
	OUT  0x8,R7
	OUT  0x8,R6
	OUT  0x8,R9
	OUT  0x8,R8
	OUT  0x8,R11
	OUT  0x8,R10
	OUT  0x8,R5
	OUT  0x8,R4
	OUT  0x8,R7
	OUT  0x8,R6
	OUT  0x8,R9
	OUT  0x8,R8
	OUT  0x8,R11
	OUT  0x8,R10
	OUT  0x8,R5
	OUT  0x8,R4
	OUT  0x8,R7
	OUT  0x8,R6
	OUT  0x8,R9
	OUT  0x8,R8
	OUT  0x8,R11
	OUT  0x8,R10
	OUT  0x8,R5
	OUT  0x8,R4
	OUT  0x8,R7
	OUT  0x8,R6
	OUT  0x8,R9
	OUT  0x8,R8
	OUT  0x8,R11
	OUT  0x8,R10
	OUT  0x8,R5
	OUT  0x8,R4
	OUT  0x8,R7
	OUT  0x8,R6
	OUT  0x8,R9
	OUT  0x8,R8
	OUT  0x8,R11
	OUT  0x8,R10
	OUT  0x8,R5
	OUT  0x8,R4
	OUT  0x8,R7
	OUT  0x8,R6
	OUT  0x8,R9
	OUT  0x8,R8
	OUT  0x8,R11
	OUT  0x8,R10
	OUT  0x8,R5
	OUT  0x8,R4
	OUT  0x8,R7
	OUT  0x8,R6
	OUT  0x8,R9
	OUT  0x8,R8
	OUT  0x8,R11
	OUT  0x8,R10
	OUT  0x8,R5
	OUT  0x8,R4
	OUT  0x8,R7
	OUT  0x8,R6
	OUT  0x8,R9
	OUT  0x8,R8
	OUT  0x8,R11
	OUT  0x8,R10
	OUT  0x8,R5
	OUT  0x8,R4
	OUT  0x8,R7
	OUT  0x8,R6
	OUT  0x8,R9
	OUT  0x8,R8
	OUT  0x8,R11
	OUT  0x8,R10
	OUT  0x8,R5
	OUT  0x8,R4
	OUT  0x8,R7
	OUT  0x8,R6
	OUT  0x8,R9
	OUT  0x8,R8
	OUT  0x8,R11
	OUT  0x8,R10
	OUT  0x8,R5
	OUT  0x8,R4
	OUT  0x8,R7
	OUT  0x8,R6
	OUT  0x8,R9
	OUT  0x8,R8
	OUT  0x8,R11
	OUT  0x8,R10
	OUT  0x8,R5
	OUT  0x8,R4
	OUT  0x8,R7
	OUT  0x8,R6
	OUT  0x8,R9
	OUT  0x8,R8
	OUT  0x8,R11
	OUT  0x8,R10
	OUT  0x8,R5
	OUT  0x8,R4
	OUT  0x8,R7
	OUT  0x8,R6
	OUT  0x8,R9
	OUT  0x8,R8
	OUT  0x8,R11
	OUT  0x8,R10
	OUT  0x8,R5
	OUT  0x8,R4
	OUT  0x8,R7
	OUT  0x8,R6
	OUT  0x8,R9
	OUT  0x8,R8
	OUT  0x8,R11
	OUT  0x8,R10
	OUT  0x8,R5
	OUT  0x8,R4
	OUT  0x8,R7
	OUT  0x8,R6
	OUT  0x8,R9
	OUT  0x8,R8
	OUT  0x8,R11
	OUT  0x8,R10
	OUT  0x8,R5
	OUT  0x8,R4
	OUT  0x8,R7
	OUT  0x8,R6
	OUT  0x8,R9
	OUT  0x8,R8
	OUT  0x8,R11
	OUT  0x8,R10
	OUT  0x8,R5
	OUT  0x8,R4
	OUT  0x8,R7
	OUT  0x8,R6
	OUT  0x8,R9
	OUT  0x8,R8
	OUT  0x8,R11
	OUT  0x8,R10
	OUT  0x8,R5
	OUT  0x8,R4
	OUT  0x8,R7
	OUT  0x8,R6
	OUT  0x8,R9
	OUT  0x8,R8
	OUT  0x8,R11
	OUT  0x8,R10
	OUT  0x8,R5
	OUT  0x8,R4
	OUT  0x8,R7
	OUT  0x8,R6
	OUT  0x8,R9
	OUT  0x8,R8
	OUT  0x8,R11
	OUT  0x8,R10
	OUT  0x8,R5
	OUT  0x8,R4
	OUT  0x8,R7
	OUT  0x8,R6
	OUT  0x8,R9
	OUT  0x8,R8
	OUT  0x8,R11
	OUT  0x8,R10
	OUT  0x8,R5
	OUT  0x8,R4
	OUT  0x8,R7
	OUT  0x8,R6
	OUT  0x8,R9
	OUT  0x8,R8
	OUT  0x8,R11
	OUT  0x8,R10
	OUT  0x8,R5
	OUT  0x8,R4
	OUT  0x8,R7
	OUT  0x8,R6
	OUT  0x8,R9
	OUT  0x8,R8
	OUT  0x8,R11
	OUT  0x8,R10
	OUT  0x8,R5
	OUT  0x8,R4
	OUT  0x8,R7
	OUT  0x8,R6
	OUT  0x8,R9
	OUT  0x8,R8
	OUT  0x8,R11
	OUT  0x8,R10
	OUT  0x8,R5
	OUT  0x8,R4
	OUT  0x8,R7
	OUT  0x8,R6
	OUT  0x8,R9
	OUT  0x8,R8
	OUT  0x8,R11
	OUT  0x8,R10
	OUT  0x8,R5
	OUT  0x8,R4
	OUT  0x8,R7
	OUT  0x8,R6
	OUT  0x8,R9
	OUT  0x8,R8
	OUT  0x8,R11
	OUT  0x8,R10
	OUT  0x8,R5
	OUT  0x8,R4
	OUT  0x8,R7
	OUT  0x8,R6
	OUT  0x8,R9
	OUT  0x8,R8
	OUT  0x8,R11
	OUT  0x8,R10
	OUT  0x8,R5
	OUT  0x8,R4
	OUT  0x8,R7
	OUT  0x8,R6
	OUT  0x8,R9
	OUT  0x8,R8
	OUT  0x8,R11
	OUT  0x8,R10
	OUT  0x8,R5
	OUT  0x8,R4
	OUT  0x8,R7
	OUT  0x8,R6
	OUT  0x8,R9
	OUT  0x8,R8
	OUT  0x8,R11
	OUT  0x8,R10
	OUT  0x8,R5
	OUT  0x8,R4
	OUT  0x8,R7
	OUT  0x8,R6
	OUT  0x8,R9
	OUT  0x8,R8
	OUT  0x8,R11
	OUT  0x8,R10
	OUT  0x8,R5
	OUT  0x8,R4
	OUT  0x8,R7
	OUT  0x8,R6
	OUT  0x8,R9
	OUT  0x8,R8
	OUT  0x8,R11
	OUT  0x8,R10
	OUT  0x8,R5
	OUT  0x8,R4
	OUT  0x8,R7
	OUT  0x8,R6
	OUT  0x8,R9
	OUT  0x8,R8
	OUT  0x8,R11
	OUT  0x8,R10
	OUT  0x8,R5
	OUT  0x8,R4
	OUT  0x8,R7
	OUT  0x8,R6
	OUT  0x8,R9
	OUT  0x8,R8
	OUT  0x8,R11
	OUT  0x8,R10
	OUT  0x8,R5
	OUT  0x8,R4
	OUT  0x8,R7
	OUT  0x8,R6
	OUT  0x8,R9
	OUT  0x8,R8
	OUT  0x8,R11
	OUT  0x8,R10
	OUT  0x8,R5
	OUT  0x8,R4
	OUT  0x8,R7
	OUT  0x8,R6
	OUT  0x8,R9
	OUT  0x8,R8
	OUT  0x8,R11
	OUT  0x8,R10
	OUT  0x8,R5
	OUT  0x8,R4
	OUT  0x8,R7
	OUT  0x8,R6
	OUT  0x8,R9
	OUT  0x8,R8
	OUT  0x8,R11
	OUT  0x8,R10
	OUT  0x8,R5
	OUT  0x8,R4
	OUT  0x8,R7
	OUT  0x8,R6
	OUT  0x8,R9
	OUT  0x8,R8
	OUT  0x8,R11
	OUT  0x8,R10
	OUT  0x8,R5
	OUT  0x8,R4
	OUT  0x8,R7
	OUT  0x8,R6
	OUT  0x8,R9
	OUT  0x8,R8
	OUT  0x8,R11
	OUT  0x8,R10
	OUT  0x8,R5
	OUT  0x8,R4
	OUT  0x8,R7
	OUT  0x8,R6
	OUT  0x8,R9
	OUT  0x8,R8
	OUT  0x8,R11
	OUT  0x8,R10
	OUT  0x8,R5
	OUT  0x8,R4
	OUT  0x8,R7
	OUT  0x8,R6
	OUT  0x8,R9
	OUT  0x8,R8
	OUT  0x8,R11
	OUT  0x8,R10
	OUT  0x8,R5
	OUT  0x8,R4
	OUT  0x8,R7
	OUT  0x8,R6
	OUT  0x8,R9
	OUT  0x8,R8
	OUT  0x8,R11
	OUT  0x8,R10
	OUT  0x8,R5
	OUT  0x8,R4
	OUT  0x8,R7
	OUT  0x8,R6
	OUT  0x8,R9
	OUT  0x8,R8
	OUT  0x8,R11
	OUT  0x8,R10
	OUT  0x8,R5
	OUT  0x8,R4
	OUT  0x8,R7
	OUT  0x8,R6
	OUT  0x8,R9
	OUT  0x8,R8
	OUT  0x8,R11
	OUT  0x8,R10
	OUT  0x8,R5
	OUT  0x8,R4
	OUT  0x8,R7
	OUT  0x8,R6
	OUT  0x8,R9
	OUT  0x8,R8
	OUT  0x8,R11
	OUT  0x8,R10
	OUT  0x8,R5
	OUT  0x8,R4
	OUT  0x8,R7
	OUT  0x8,R6
	OUT  0x8,R9
	OUT  0x8,R8
	OUT  0x8,R11
	OUT  0x8,R10
	OUT  0x8,R5
	OUT  0x8,R4
	OUT  0x8,R7
	OUT  0x8,R6
	OUT  0x8,R9
	OUT  0x8,R8
	OUT  0x8,R11
	OUT  0x8,R10
	OUT  0x8,R5
	OUT  0x8,R4
	OUT  0x8,R7
	OUT  0x8,R6
	OUT  0x8,R9
	OUT  0x8,R8
	OUT  0x8,R11
	OUT  0x8,R10
	OUT  0x8,R5
	OUT  0x8,R4
	OUT  0x8,R7
	OUT  0x8,R6
	OUT  0x8,R9
	OUT  0x8,R8
	OUT  0x8,R11
	OUT  0x8,R10
	OUT  0x8,R5
	OUT  0x8,R4
	OUT  0x8,R7
	OUT  0x8,R6
	OUT  0x8,R9
	OUT  0x8,R8
	OUT  0x8,R11
	OUT  0x8,R10
	OUT  0x8,R5
	OUT  0x8,R4
	OUT  0x8,R7
	OUT  0x8,R6
	OUT  0x8,R9
	OUT  0x8,R8
	OUT  0x8,R11
	OUT  0x8,R10
	OUT  0x8,R5
	OUT  0x8,R4
	OUT  0x8,R7
	OUT  0x8,R6
	OUT  0x8,R9
	OUT  0x8,R8
	OUT  0x8,R11
	OUT  0x8,R10
	OUT  0x8,R5
	OUT  0x8,R4
	OUT  0x8,R7
	OUT  0x8,R6
	OUT  0x8,R9
	OUT  0x8,R8
	OUT  0x8,R11
	OUT  0x8,R10
	OUT  0x8,R5
	OUT  0x8,R4
	OUT  0x8,R7
	OUT  0x8,R6
	OUT  0x8,R9
	OUT  0x8,R8
	OUT  0x8,R11
	OUT  0x8,R10
	OUT  0x8,R5
	OUT  0x8,R4
	OUT  0x8,R7
	OUT  0x8,R6
	OUT  0x8,R9
	OUT  0x8,R8
	OUT  0x8,R11
	OUT  0x8,R10
	OUT  0x8,R5
	OUT  0x8,R4
	OUT  0x8,R7
	OUT  0x8,R6
	OUT  0x8,R9
	OUT  0x8,R8
	OUT  0x8,R11
	OUT  0x8,R10
	OUT  0x8,R5
	OUT  0x8,R4
	OUT  0x8,R7
	OUT  0x8,R6
	OUT  0x8,R9
	OUT  0x8,R8
	OUT  0x8,R11
	OUT  0x8,R10
	OUT  0x8,R5
	OUT  0x8,R4
	OUT  0x8,R7
	OUT  0x8,R6
	OUT  0x8,R9
	OUT  0x8,R8
	OUT  0x8,R11
	OUT  0x8,R10
	OUT  0x8,R5
	OUT  0x8,R4
	OUT  0x8,R7
	OUT  0x8,R6
	OUT  0x8,R9
	OUT  0x8,R8
	OUT  0x8,R11
	OUT  0x8,R10
	OUT  0x8,R5
	OUT  0x8,R4
	OUT  0x8,R7
	OUT  0x8,R6
	OUT  0x8,R9
	OUT  0x8,R8
	OUT  0x8,R11
	OUT  0x8,R10
	OUT  0x8,R5
	OUT  0x8,R4
	OUT  0x8,R7
	OUT  0x8,R6
	OUT  0x8,R9
	OUT  0x8,R8
	OUT  0x8,R11
	OUT  0x8,R10
	OUT  0x8,R5
	OUT  0x8,R4
	OUT  0x8,R7
	OUT  0x8,R6
	OUT  0x8,R9
	OUT  0x8,R8
	OUT  0x8,R11
	OUT  0x8,R10
	OUT  0x8,R5
	OUT  0x8,R4
	OUT  0x8,R7
	OUT  0x8,R6
	OUT  0x8,R9
	OUT  0x8,R8
	OUT  0x8,R11
	OUT  0x8,R10
	OUT  0x8,R5
	OUT  0x8,R4
	OUT  0x8,R7
	OUT  0x8,R6
	OUT  0x8,R9
	OUT  0x8,R8
	OUT  0x8,R11
	OUT  0x8,R10
	OUT  0x8,R5
	OUT  0x8,R4
	OUT  0x8,R7
	OUT  0x8,R6
	OUT  0x8,R9
	OUT  0x8,R8
	OUT  0x8,R11
	OUT  0x8,R10
	OUT  0x8,R5
	OUT  0x8,R4
	OUT  0x8,R7
	OUT  0x8,R6
	OUT  0x8,R9
	OUT  0x8,R8
	OUT  0x8,R11
	OUT  0x8,R10
	OUT  0x8,R5
	OUT  0x8,R4
	OUT  0x8,R7
	OUT  0x8,R6
	OUT  0x8,R9
	OUT  0x8,R8
	OUT  0x8,R11
	OUT  0x8,R10
	OUT  0x8,R5
	OUT  0x8,R4
	OUT  0x8,R7
	OUT  0x8,R6
	OUT  0x8,R9
	OUT  0x8,R8
	OUT  0x8,R11
	OUT  0x8,R10
	OUT  0x8,R5
	OUT  0x8,R4
	OUT  0x8,R7
	OUT  0x8,R6
	OUT  0x8,R9
	OUT  0x8,R8
	OUT  0x8,R11
	OUT  0x8,R10
	OUT  0x8,R5
	OUT  0x8,R4
	OUT  0x8,R7
	OUT  0x8,R6
	OUT  0x8,R9
	OUT  0x8,R8
	OUT  0x8,R11
	OUT  0x8,R10
	OUT  0x8,R5
	OUT  0x8,R4
	OUT  0x8,R7
	OUT  0x8,R6
	OUT  0x8,R9
	OUT  0x8,R8
	OUT  0x8,R11
	OUT  0x8,R10
	OUT  0x8,R5
	OUT  0x8,R4
	OUT  0x8,R7
	OUT  0x8,R6
	OUT  0x8,R9
	OUT  0x8,R8
	OUT  0x8,R11
	OUT  0x8,R10
	OUT  0x8,R5
	OUT  0x8,R4
	OUT  0x8,R7
	OUT  0x8,R6
	OUT  0x8,R9
	OUT  0x8,R8
	OUT  0x8,R11
	OUT  0x8,R10
	OUT  0x8,R5
	OUT  0x8,R4
	OUT  0x8,R7
	OUT  0x8,R6
	OUT  0x8,R9
	OUT  0x8,R8
	OUT  0x8,R11
	OUT  0x8,R10
	OUT  0x8,R5
	OUT  0x8,R4
	OUT  0x8,R7
	OUT  0x8,R6
	OUT  0x8,R9
	OUT  0x8,R8
	OUT  0x8,R11
	OUT  0x8,R10
	OUT  0x8,R5
	OUT  0x8,R4
	OUT  0x8,R7
	OUT  0x8,R6
	OUT  0x8,R9
	OUT  0x8,R8
	OUT  0x8,R11
	OUT  0x8,R10
	OUT  0x8,R5
	OUT  0x8,R4
	OUT  0x8,R7
	OUT  0x8,R6
	OUT  0x8,R9
	OUT  0x8,R8
	OUT  0x8,R11
	OUT  0x8,R10
	OUT  0x8,R5
	OUT  0x8,R4
	OUT  0x8,R7
	OUT  0x8,R6
	OUT  0x8,R9
	OUT  0x8,R8
	OUT  0x8,R11
	OUT  0x8,R10
	OUT  0x8,R5
	OUT  0x8,R4
	OUT  0x8,R7
	OUT  0x8,R6
	OUT  0x8,R9
	OUT  0x8,R8
	OUT  0x8,R11
	OUT  0x8,R10
	OUT  0x8,R5
	OUT  0x8,R4
	OUT  0x8,R7
	OUT  0x8,R6
	OUT  0x8,R9
	OUT  0x8,R8
	OUT  0x8,R11
	OUT  0x8,R10
	OUT  0x8,R5
	OUT  0x8,R4
	OUT  0x8,R7
	OUT  0x8,R6
	OUT  0x8,R9
	OUT  0x8,R8
	OUT  0x8,R11
	OUT  0x8,R10
	OUT  0x8,R5
	OUT  0x8,R4
	OUT  0x8,R7
	OUT  0x8,R6
	OUT  0x8,R9
	OUT  0x8,R8
	OUT  0x8,R11
	OUT  0x8,R10
	OUT  0x8,R5
	OUT  0x8,R4
	OUT  0x8,R7
	OUT  0x8,R6
	OUT  0x8,R9
	OUT  0x8,R8
	OUT  0x8,R11
	OUT  0x8,R10
	OUT  0x8,R5
	OUT  0x8,R4
	OUT  0x8,R7
	OUT  0x8,R6
	OUT  0x8,R9
	OUT  0x8,R8
	OUT  0x8,R11
	OUT  0x8,R10
	OUT  0x8,R5
	OUT  0x8,R4
	OUT  0x8,R7
	OUT  0x8,R6
	OUT  0x8,R9
	OUT  0x8,R8
	OUT  0x8,R11
	OUT  0x8,R10
	OUT  0x8,R5
	OUT  0x8,R4
	OUT  0x8,R7
	OUT  0x8,R6
	OUT  0x8,R9
	OUT  0x8,R8
	OUT  0x8,R11
	OUT  0x8,R10
	OUT  0x8,R5
	OUT  0x8,R4
	OUT  0x8,R7
	OUT  0x8,R6
	OUT  0x8,R9
	OUT  0x8,R8
	OUT  0x8,R11
	OUT  0x8,R10
	OUT  0x8,R5
	OUT  0x8,R4
	OUT  0x8,R7
	OUT  0x8,R6
	OUT  0x8,R9
	OUT  0x8,R8
	OUT  0x8,R11
	OUT  0x8,R10
	OUT  0x8,R5
	OUT  0x8,R4
	OUT  0x8,R7
	OUT  0x8,R6
	OUT  0x8,R9
	OUT  0x8,R8
	OUT  0x8,R11
	OUT  0x8,R10
	OUT  0x8,R5
	OUT  0x8,R4
	OUT  0x8,R7
	OUT  0x8,R6
	OUT  0x8,R9
	OUT  0x8,R8
	OUT  0x8,R11
	OUT  0x8,R10
	OUT  0x8,R5
	OUT  0x8,R4
	OUT  0x8,R7
	OUT  0x8,R6
	OUT  0x8,R9
	OUT  0x8,R8
	OUT  0x8,R11
	OUT  0x8,R10
	OUT  0x8,R5
	OUT  0x8,R4
	OUT  0x8,R7
	OUT  0x8,R6
	OUT  0x8,R9
	OUT  0x8,R8
	OUT  0x8,R11
	OUT  0x8,R10
	OUT  0x8,R5
	OUT  0x8,R4
	OUT  0x8,R7
	OUT  0x8,R6
	OUT  0x8,R9
	OUT  0x8,R8
	OUT  0x8,R11
	OUT  0x8,R10
	OUT  0x8,R5
	OUT  0x8,R4
	OUT  0x8,R7
	OUT  0x8,R6
	OUT  0x8,R9
	OUT  0x8,R8
	OUT  0x8,R11
	OUT  0x8,R10
	OUT  0x8,R5
	OUT  0x8,R4
	OUT  0x8,R7
	OUT  0x8,R6
	OUT  0x8,R9
	OUT  0x8,R8
	OUT  0x8,R11
	OUT  0x8,R10
	OUT  0x8,R5
	OUT  0x8,R4
	OUT  0x8,R7
	OUT  0x8,R6
	OUT  0x8,R9
	OUT  0x8,R8
	OUT  0x8,R11
	OUT  0x8,R10
	OUT  0x8,R5
	OUT  0x8,R4
	OUT  0x8,R7
	OUT  0x8,R6
	OUT  0x8,R9
	OUT  0x8,R8
	OUT  0x8,R11
	OUT  0x8,R10
	OUT  0x8,R5
	OUT  0x8,R4
	OUT  0x8,R7
	OUT  0x8,R6
	OUT  0x8,R9
	OUT  0x8,R8
	OUT  0x8,R11
	OUT  0x8,R10
	OUT  0x8,R5
	OUT  0x8,R4
	OUT  0x8,R7
	OUT  0x8,R6
	OUT  0x8,R9
	OUT  0x8,R8
	OUT  0x8,R11
	OUT  0x8,R10
	OUT  0x8,R5
	OUT  0x8,R4
	OUT  0x8,R7
	OUT  0x8,R6
	OUT  0x8,R9
	OUT  0x8,R8
	OUT  0x8,R11
	OUT  0x8,R10
	OUT  0x8,R5
	OUT  0x8,R4
	OUT  0x8,R7
	OUT  0x8,R6
	OUT  0x8,R9
	OUT  0x8,R8
	OUT  0x8,R11
	OUT  0x8,R10
	OUT  0x8,R5
	OUT  0x8,R4
	OUT  0x8,R7
	OUT  0x8,R6
	OUT  0x8,R9
	OUT  0x8,R8
	OUT  0x8,R11
	OUT  0x8,R10
	OUT  0x8,R5
	OUT  0x8,R4
	OUT  0x8,R7
	OUT  0x8,R6
	OUT  0x8,R9
	OUT  0x8,R8
	OUT  0x8,R11
	OUT  0x8,R10
	OUT  0x8,R5
	OUT  0x8,R4
	OUT  0x8,R7
	OUT  0x8,R6
	OUT  0x8,R9
	OUT  0x8,R8
	OUT  0x8,R11
	OUT  0x8,R10
	OUT  0x8,R5
	OUT  0x8,R4
	OUT  0x8,R7
	OUT  0x8,R6
	OUT  0x8,R9
	OUT  0x8,R8
	OUT  0x8,R11
	OUT  0x8,R10
	OUT  0x8,R5
	OUT  0x8,R4
	OUT  0x8,R7
	OUT  0x8,R6
	OUT  0x8,R9
	OUT  0x8,R8
	OUT  0x8,R11
	OUT  0x8,R10
	OUT  0x8,R5
	OUT  0x8,R4
	OUT  0x8,R7
	OUT  0x8,R6
	OUT  0x8,R9
	OUT  0x8,R8
	OUT  0x8,R11
	OUT  0x8,R10
	OUT  0x8,R5
	OUT  0x8,R4
	OUT  0x8,R7
	OUT  0x8,R6
	OUT  0x8,R9
	OUT  0x8,R8
	OUT  0x8,R11
	OUT  0x8,R10
	OUT  0x8,R5
	OUT  0x8,R4
	OUT  0x8,R7
	OUT  0x8,R6
	OUT  0x8,R9
	OUT  0x8,R8
	OUT  0x8,R11
	OUT  0x8,R10
	OUT  0x8,R5
	OUT  0x8,R4
	OUT  0x8,R7
	OUT  0x8,R6
	OUT  0x8,R9
	OUT  0x8,R8
	OUT  0x8,R11
	OUT  0x8,R10
	OUT  0x8,R5
	OUT  0x8,R4
	OUT  0x8,R7
	OUT  0x8,R6
	OUT  0x8,R9
	OUT  0x8,R8
	OUT  0x8,R11
	OUT  0x8,R10
	OUT  0x8,R5
	OUT  0x8,R4
	OUT  0x8,R7
	OUT  0x8,R6
	OUT  0x8,R9
	OUT  0x8,R8
	OUT  0x8,R11
	OUT  0x8,R10
	OUT  0x8,R5
	OUT  0x8,R4
	OUT  0x8,R7
	OUT  0x8,R6
	OUT  0x8,R9
	OUT  0x8,R8
	OUT  0x8,R11
	OUT  0x8,R10
	OUT  0x8,R5
	OUT  0x8,R4
	OUT  0x8,R7
	OUT  0x8,R6
	OUT  0x8,R9
	OUT  0x8,R8
	OUT  0x8,R11
	OUT  0x8,R10
	OUT  0x8,R5
	OUT  0x8,R4
	OUT  0x8,R7
	OUT  0x8,R6
	OUT  0x8,R9
	OUT  0x8,R8
	OUT  0x8,R11
	OUT  0x8,R10
	OUT  0x8,R5
	OUT  0x8,R4
	OUT  0x8,R7
	OUT  0x8,R6
	OUT  0x8,R9
	OUT  0x8,R8
	OUT  0x8,R11
	OUT  0x8,R10
	OUT  0x8,R5
	OUT  0x8,R4
	OUT  0x8,R7
	OUT  0x8,R6
	OUT  0x8,R9
	OUT  0x8,R8
	OUT  0x8,R11
	OUT  0x8,R10
	OUT  0x8,R5
	OUT  0x8,R4
	OUT  0x8,R7
	OUT  0x8,R6
	OUT  0x8,R9
	OUT  0x8,R8
	OUT  0x8,R11
	OUT  0x8,R10
	OUT  0x8,R5
	OUT  0x8,R4
	OUT  0x8,R7
	OUT  0x8,R6
	OUT  0x8,R9
	OUT  0x8,R8
	OUT  0x8,R11
	OUT  0x8,R10
	OUT  0x8,R5
	OUT  0x8,R4
	OUT  0x8,R7
	OUT  0x8,R6
	OUT  0x8,R9
	OUT  0x8,R8
	OUT  0x8,R11
	OUT  0x8,R10
	OUT  0x8,R5
	OUT  0x8,R4
	OUT  0x8,R7
	OUT  0x8,R6
	OUT  0x8,R9
	OUT  0x8,R8
	OUT  0x8,R11
	OUT  0x8,R10
	OUT  0x8,R5
	OUT  0x8,R4
	OUT  0x8,R7
	OUT  0x8,R6
	OUT  0x8,R9
	OUT  0x8,R8
	OUT  0x8,R11
	OUT  0x8,R10
	OUT  0x8,R5
	OUT  0x8,R4
	OUT  0x8,R7
	OUT  0x8,R6
	OUT  0x8,R9
	OUT  0x8,R8
	OUT  0x8,R11
	OUT  0x8,R10
	OUT  0x8,R5
	OUT  0x8,R4
	OUT  0x8,R7
	OUT  0x8,R6
	OUT  0x8,R9
	OUT  0x8,R8
	OUT  0x8,R11
	OUT  0x8,R10
	OUT  0x8,R5
	OUT  0x8,R4
	OUT  0x8,R7
	OUT  0x8,R6
	OUT  0x8,R9
	OUT  0x8,R8
	OUT  0x8,R11
	OUT  0x8,R10
	OUT  0x8,R5
	OUT  0x8,R4
	OUT  0x8,R7
	OUT  0x8,R6
	OUT  0x8,R9
	OUT  0x8,R8
	OUT  0x8,R11
	OUT  0x8,R10
	OUT  0x8,R5
	OUT  0x8,R4
	OUT  0x8,R7
	OUT  0x8,R6
	OUT  0x8,R9
	OUT  0x8,R8
	OUT  0x8,R11
	OUT  0x8,R10
	OUT  0x8,R5
	OUT  0x8,R4
	OUT  0x8,R7
	OUT  0x8,R6
	OUT  0x8,R9
	OUT  0x8,R8
	OUT  0x8,R11
	OUT  0x8,R10
	OUT  0x8,R5
	OUT  0x8,R4
	OUT  0x8,R7
	OUT  0x8,R6
	OUT  0x8,R9
	OUT  0x8,R8
	OUT  0x8,R11
	OUT  0x8,R10
	OUT  0x8,R5
	OUT  0x8,R4
	OUT  0x8,R7
	OUT  0x8,R6
	OUT  0x8,R9
	OUT  0x8,R8
	OUT  0x8,R11
	OUT  0x8,R10
	OUT  0x8,R5
	OUT  0x8,R4
	OUT  0x8,R7
	OUT  0x8,R6
	OUT  0x8,R9
	OUT  0x8,R8
	OUT  0x8,R11
	OUT  0x8,R10
	OUT  0x8,R5
	OUT  0x8,R4
	OUT  0x8,R7
	OUT  0x8,R6
	OUT  0x8,R9
	OUT  0x8,R8
	OUT  0x8,R11
	OUT  0x8,R10
	OUT  0x8,R5
	OUT  0x8,R4
	OUT  0x8,R7
	OUT  0x8,R6
	OUT  0x8,R9
	OUT  0x8,R8
	OUT  0x8,R11
	OUT  0x8,R10
	OUT  0x8,R5
	OUT  0x8,R4
	OUT  0x8,R7
	OUT  0x8,R6
	OUT  0x8,R9
	OUT  0x8,R8
	OUT  0x8,R11
	OUT  0x8,R10
	OUT  0x8,R5
	OUT  0x8,R4
	OUT  0x8,R7
	OUT  0x8,R6
	OUT  0x8,R9
	OUT  0x8,R8
	OUT  0x8,R11
	OUT  0x8,R10
	OUT  0x8,R5
	OUT  0x8,R4
	OUT  0x8,R7
	OUT  0x8,R6
	OUT  0x8,R9
	OUT  0x8,R8
	OUT  0x8,R11
	OUT  0x8,R10
	OUT  0x8,R5
	OUT  0x8,R4
	OUT  0x8,R7
	OUT  0x8,R6
	OUT  0x8,R9
	OUT  0x8,R8
	OUT  0x8,R11
	OUT  0x8,R10
	OUT  0x8,R5
	OUT  0x8,R4
	OUT  0x8,R7
	OUT  0x8,R6
	OUT  0x8,R9
	OUT  0x8,R8
	OUT  0x8,R11
	OUT  0x8,R10
	OUT  0x8,R5
	OUT  0x8,R4
	OUT  0x8,R7
	OUT  0x8,R6
	OUT  0x8,R9
	OUT  0x8,R8
	OUT  0x8,R11
	OUT  0x8,R10
	OUT  0x8,R5
	OUT  0x8,R4
	OUT  0x8,R7
	OUT  0x8,R6
	OUT  0x8,R9
	OUT  0x8,R8
	OUT  0x8,R11
	OUT  0x8,R10
	OUT  0x8,R5
	OUT  0x8,R4
	OUT  0x8,R7
	OUT  0x8,R6
	OUT  0x8,R9
	OUT  0x8,R8
	OUT  0x8,R11
	OUT  0x8,R10
	OUT  0x8,R5
	OUT  0x8,R4
	OUT  0x8,R7
	OUT  0x8,R6
	OUT  0x8,R9
	OUT  0x8,R8
	OUT  0x8,R11
	OUT  0x8,R10
	OUT  0x8,R5
	OUT  0x8,R4
	OUT  0x8,R7
	OUT  0x8,R6
	OUT  0x8,R9
	OUT  0x8,R8
	OUT  0x8,R11
	OUT  0x8,R10
	OUT  0x8,R5
	OUT  0x8,R4
	OUT  0x8,R7
	OUT  0x8,R6
	OUT  0x8,R9
	OUT  0x8,R8
	OUT  0x8,R11
	OUT  0x8,R10
	OUT  0x8,R5
	OUT  0x8,R4
	OUT  0x8,R7
	OUT  0x8,R6
	OUT  0x8,R9
	OUT  0x8,R8
	OUT  0x8,R11
	OUT  0x8,R10
	OUT  0x8,R5
	OUT  0x8,R4
	OUT  0x8,R7
	OUT  0x8,R6
	OUT  0x8,R9
	OUT  0x8,R8
	OUT  0x8,R11
	OUT  0x8,R10
	OUT  0x8,R5
	OUT  0x8,R4
	OUT  0x8,R7
	OUT  0x8,R6
	OUT  0x8,R9
	OUT  0x8,R8
	OUT  0x8,R11
	OUT  0x8,R10
	OUT  0x8,R5
	OUT  0x8,R4
	OUT  0x8,R7
	OUT  0x8,R6
	OUT  0x8,R9
	OUT  0x8,R8
	OUT  0x8,R11
	OUT  0x8,R10
	OUT  0x8,R5
	OUT  0x8,R4
	OUT  0x8,R7
	OUT  0x8,R6
	OUT  0x8,R9
	OUT  0x8,R8
	OUT  0x8,R11
	OUT  0x8,R10
	OUT  0x8,R5
	OUT  0x8,R4
	OUT  0x8,R7
	OUT  0x8,R6
	OUT  0x8,R9
	OUT  0x8,R8
	OUT  0x8,R11
	OUT  0x8,R10
	OUT  0x8,R5
	OUT  0x8,R4
	OUT  0x8,R7
	OUT  0x8,R6
	OUT  0x8,R9
	OUT  0x8,R8
	OUT  0x8,R11
	OUT  0x8,R10
	OUT  0x8,R5
	OUT  0x8,R4
	OUT  0x8,R7
	OUT  0x8,R6
	OUT  0x8,R9
	OUT  0x8,R8
	OUT  0x8,R11
	OUT  0x8,R10
	OUT  0x8,R5
	OUT  0x8,R4
	OUT  0x8,R7
	OUT  0x8,R6
	OUT  0x8,R9
	OUT  0x8,R8
	OUT  0x8,R11
	OUT  0x8,R10
	OUT  0x8,R5
	OUT  0x8,R4
	OUT  0x8,R7
	OUT  0x8,R6
	OUT  0x8,R9
	OUT  0x8,R8
	OUT  0x8,R11
	OUT  0x8,R10
	OUT  0x8,R5
	OUT  0x8,R4
	OUT  0x8,R7
	OUT  0x8,R6
	OUT  0x8,R9
	OUT  0x8,R8
	OUT  0x8,R11
	OUT  0x8,R10
	OUT  0x8,R5
	OUT  0x8,R4
	OUT  0x8,R7
	OUT  0x8,R6
	OUT  0x8,R9
	OUT  0x8,R8
	OUT  0x8,R11
	OUT  0x8,R10
	OUT  0x8,R5
	OUT  0x8,R4
	OUT  0x8,R7
	OUT  0x8,R6
	OUT  0x8,R9
	OUT  0x8,R8
	OUT  0x8,R11
	OUT  0x8,R10
	OUT  0x8,R5
	OUT  0x8,R4
	OUT  0x8,R7
	OUT  0x8,R6
	OUT  0x8,R9
	OUT  0x8,R8
	OUT  0x8,R11
	OUT  0x8,R10
	OUT  0x8,R5
	OUT  0x8,R4
	OUT  0x8,R7
	OUT  0x8,R6
	OUT  0x8,R9
	OUT  0x8,R8
	OUT  0x8,R11
	OUT  0x8,R10
	OUT  0x8,R5
	OUT  0x8,R4
	OUT  0x8,R7
	OUT  0x8,R6
	OUT  0x8,R9
	OUT  0x8,R8
	OUT  0x8,R11
	OUT  0x8,R10
	OUT  0x8,R5
	OUT  0x8,R4
	OUT  0x8,R7
	OUT  0x8,R6
	OUT  0x8,R9
	OUT  0x8,R8
	OUT  0x8,R11
	OUT  0x8,R10
	OUT  0x8,R5
	OUT  0x8,R4
	OUT  0x8,R7
	OUT  0x8,R6
	OUT  0x8,R9
	OUT  0x8,R8
	OUT  0x8,R11
	OUT  0x8,R10
	OUT  0x8,R5
	OUT  0x8,R4
	OUT  0x8,R7
	OUT  0x8,R6
	OUT  0x8,R9
	OUT  0x8,R8
	OUT  0x8,R11
	OUT  0x8,R10
	OUT  0x8,R5
	OUT  0x8,R4
	OUT  0x8,R7
	OUT  0x8,R6
	OUT  0x8,R9
	OUT  0x8,R8
	OUT  0x8,R11
	OUT  0x8,R10
	OUT  0x8,R5
	OUT  0x8,R4
	OUT  0x8,R7
	OUT  0x8,R6
	OUT  0x8,R9
	OUT  0x8,R8
	OUT  0x8,R11
	OUT  0x8,R10
	OUT  0x8,R5
	OUT  0x8,R4
	OUT  0x8,R7
	OUT  0x8,R6
	OUT  0x8,R9
	OUT  0x8,R8
	OUT  0x8,R11
	OUT  0x8,R10
	OUT  0x8,R5
	OUT  0x8,R4
	OUT  0x8,R7
	OUT  0x8,R6
	OUT  0x8,R9
	OUT  0x8,R8
	OUT  0x8,R11
	OUT  0x8,R10
	OUT  0x8,R5
	OUT  0x8,R4
	OUT  0x8,R7
	OUT  0x8,R6
	OUT  0x8,R9
	OUT  0x8,R8
	OUT  0x8,R11
	OUT  0x8,R10
	OUT  0x8,R5
	OUT  0x8,R4
	OUT  0x8,R7
	OUT  0x8,R6
	OUT  0x8,R9
	OUT  0x8,R8
	OUT  0x8,R11
	OUT  0x8,R10
	OUT  0x8,R5
	OUT  0x8,R4
	OUT  0x8,R7
	OUT  0x8,R6
	OUT  0x8,R9
	OUT  0x8,R8
	OUT  0x8,R11
	OUT  0x8,R10
	OUT  0x8,R5
	OUT  0x8,R4
	OUT  0x8,R7
	OUT  0x8,R6
	OUT  0x8,R9
	OUT  0x8,R8
	OUT  0x8,R11
	OUT  0x8,R10
	OUT  0x8,R5
	OUT  0x8,R4
	OUT  0x8,R7
	OUT  0x8,R6
	OUT  0x8,R9
	OUT  0x8,R8
	OUT  0x8,R11
	OUT  0x8,R10
	OUT  0x8,R5
	OUT  0x8,R4
	OUT  0x8,R7
	OUT  0x8,R6
	OUT  0x8,R9
	OUT  0x8,R8
	OUT  0x8,R11
	OUT  0x8,R10
	OUT  0x8,R5
	OUT  0x8,R4
	OUT  0x8,R7
	OUT  0x8,R6
	OUT  0x8,R9
	OUT  0x8,R8
	OUT  0x8,R11
	OUT  0x8,R10
	OUT  0x8,R5
	OUT  0x8,R4
	OUT  0x8,R7
	OUT  0x8,R6
	OUT  0x8,R9
	OUT  0x8,R8
	OUT  0x8,R11
	OUT  0x8,R10
	OUT  0x8,R5
	OUT  0x8,R4
	OUT  0x8,R7
	OUT  0x8,R6
	OUT  0x8,R9
	OUT  0x8,R8
	OUT  0x8,R11
	OUT  0x8,R10
	OUT  0x8,R5
	OUT  0x8,R4
	OUT  0x8,R7
	OUT  0x8,R6
	OUT  0x8,R9
	OUT  0x8,R8
	OUT  0x8,R11
	OUT  0x8,R10
	OUT  0x8,R5
	OUT  0x8,R4
	OUT  0x8,R7
	OUT  0x8,R6
	OUT  0x8,R9
	OUT  0x8,R8
	OUT  0x8,R11
	OUT  0x8,R10
	OUT  0x8,R5
	OUT  0x8,R4
	OUT  0x8,R7
	OUT  0x8,R6
	OUT  0x8,R9
	OUT  0x8,R8
	OUT  0x8,R11
	OUT  0x8,R10
	OUT  0x8,R5
	OUT  0x8,R4
	OUT  0x8,R7
	OUT  0x8,R6
	OUT  0x8,R9
	OUT  0x8,R8
	OUT  0x8,R11
	OUT  0x8,R10
; 0000 021D         pixel1000
	OUT  0x8,R5
	OUT  0x8,R4
	OUT  0x8,R7
	OUT  0x8,R6
	OUT  0x8,R9
	OUT  0x8,R8
	OUT  0x8,R11
	OUT  0x8,R10
	OUT  0x8,R5
	OUT  0x8,R4
	OUT  0x8,R7
	OUT  0x8,R6
	OUT  0x8,R9
	OUT  0x8,R8
	OUT  0x8,R11
	OUT  0x8,R10
	OUT  0x8,R5
	OUT  0x8,R4
	OUT  0x8,R7
	OUT  0x8,R6
	OUT  0x8,R9
	OUT  0x8,R8
	OUT  0x8,R11
	OUT  0x8,R10
	OUT  0x8,R5
	OUT  0x8,R4
	OUT  0x8,R7
	OUT  0x8,R6
	OUT  0x8,R9
	OUT  0x8,R8
	OUT  0x8,R11
	OUT  0x8,R10
	OUT  0x8,R5
	OUT  0x8,R4
	OUT  0x8,R7
	OUT  0x8,R6
	OUT  0x8,R9
	OUT  0x8,R8
	OUT  0x8,R11
	OUT  0x8,R10
	OUT  0x8,R5
	OUT  0x8,R4
	OUT  0x8,R7
	OUT  0x8,R6
	OUT  0x8,R9
	OUT  0x8,R8
	OUT  0x8,R11
	OUT  0x8,R10
	OUT  0x8,R5
	OUT  0x8,R4
	OUT  0x8,R7
	OUT  0x8,R6
	OUT  0x8,R9
	OUT  0x8,R8
	OUT  0x8,R11
	OUT  0x8,R10
	OUT  0x8,R5
	OUT  0x8,R4
	OUT  0x8,R7
	OUT  0x8,R6
	OUT  0x8,R9
	OUT  0x8,R8
	OUT  0x8,R11
	OUT  0x8,R10
	OUT  0x8,R5
	OUT  0x8,R4
	OUT  0x8,R7
	OUT  0x8,R6
	OUT  0x8,R9
	OUT  0x8,R8
	OUT  0x8,R11
	OUT  0x8,R10
	OUT  0x8,R5
	OUT  0x8,R4
	OUT  0x8,R7
	OUT  0x8,R6
	OUT  0x8,R9
	OUT  0x8,R8
	OUT  0x8,R11
	OUT  0x8,R10
	OUT  0x8,R5
	OUT  0x8,R4
	OUT  0x8,R7
	OUT  0x8,R6
	OUT  0x8,R9
	OUT  0x8,R8
	OUT  0x8,R11
	OUT  0x8,R10
	OUT  0x8,R5
	OUT  0x8,R4
	OUT  0x8,R7
	OUT  0x8,R6
	OUT  0x8,R9
	OUT  0x8,R8
	OUT  0x8,R11
	OUT  0x8,R10
	OUT  0x8,R5
	OUT  0x8,R4
	OUT  0x8,R7
	OUT  0x8,R6
	OUT  0x8,R9
	OUT  0x8,R8
	OUT  0x8,R11
	OUT  0x8,R10
	OUT  0x8,R5
	OUT  0x8,R4
	OUT  0x8,R7
	OUT  0x8,R6
	OUT  0x8,R9
	OUT  0x8,R8
	OUT  0x8,R11
	OUT  0x8,R10
	OUT  0x8,R5
	OUT  0x8,R4
	OUT  0x8,R7
	OUT  0x8,R6
	OUT  0x8,R9
	OUT  0x8,R8
	OUT  0x8,R11
	OUT  0x8,R10
	OUT  0x8,R5
	OUT  0x8,R4
	OUT  0x8,R7
	OUT  0x8,R6
	OUT  0x8,R9
	OUT  0x8,R8
	OUT  0x8,R11
	OUT  0x8,R10
	OUT  0x8,R5
	OUT  0x8,R4
	OUT  0x8,R7
	OUT  0x8,R6
	OUT  0x8,R9
	OUT  0x8,R8
	OUT  0x8,R11
	OUT  0x8,R10
	OUT  0x8,R5
	OUT  0x8,R4
	OUT  0x8,R7
	OUT  0x8,R6
	OUT  0x8,R9
	OUT  0x8,R8
	OUT  0x8,R11
	OUT  0x8,R10
	OUT  0x8,R5
	OUT  0x8,R4
	OUT  0x8,R7
	OUT  0x8,R6
	OUT  0x8,R9
	OUT  0x8,R8
	OUT  0x8,R11
	OUT  0x8,R10
	OUT  0x8,R5
	OUT  0x8,R4
	OUT  0x8,R7
	OUT  0x8,R6
	OUT  0x8,R9
	OUT  0x8,R8
	OUT  0x8,R11
	OUT  0x8,R10
	OUT  0x8,R5
	OUT  0x8,R4
	OUT  0x8,R7
	OUT  0x8,R6
	OUT  0x8,R9
	OUT  0x8,R8
	OUT  0x8,R11
	OUT  0x8,R10
	OUT  0x8,R5
	OUT  0x8,R4
	OUT  0x8,R7
	OUT  0x8,R6
	OUT  0x8,R9
	OUT  0x8,R8
	OUT  0x8,R11
	OUT  0x8,R10
	OUT  0x8,R5
	OUT  0x8,R4
	OUT  0x8,R7
	OUT  0x8,R6
	OUT  0x8,R9
	OUT  0x8,R8
	OUT  0x8,R11
	OUT  0x8,R10
	OUT  0x8,R5
	OUT  0x8,R4
	OUT  0x8,R7
	OUT  0x8,R6
	OUT  0x8,R9
	OUT  0x8,R8
	OUT  0x8,R11
	OUT  0x8,R10
	OUT  0x8,R5
	OUT  0x8,R4
	OUT  0x8,R7
	OUT  0x8,R6
	OUT  0x8,R9
	OUT  0x8,R8
	OUT  0x8,R11
	OUT  0x8,R10
	OUT  0x8,R5
	OUT  0x8,R4
	OUT  0x8,R7
	OUT  0x8,R6
	OUT  0x8,R9
	OUT  0x8,R8
	OUT  0x8,R11
	OUT  0x8,R10
	OUT  0x8,R5
	OUT  0x8,R4
	OUT  0x8,R7
	OUT  0x8,R6
	OUT  0x8,R9
	OUT  0x8,R8
	OUT  0x8,R11
	OUT  0x8,R10
	OUT  0x8,R5
	OUT  0x8,R4
	OUT  0x8,R7
	OUT  0x8,R6
	OUT  0x8,R9
	OUT  0x8,R8
	OUT  0x8,R11
	OUT  0x8,R10
	OUT  0x8,R5
	OUT  0x8,R4
	OUT  0x8,R7
	OUT  0x8,R6
	OUT  0x8,R9
	OUT  0x8,R8
	OUT  0x8,R11
	OUT  0x8,R10
	OUT  0x8,R5
	OUT  0x8,R4
	OUT  0x8,R7
	OUT  0x8,R6
	OUT  0x8,R9
	OUT  0x8,R8
	OUT  0x8,R11
	OUT  0x8,R10
	OUT  0x8,R5
	OUT  0x8,R4
	OUT  0x8,R7
	OUT  0x8,R6
	OUT  0x8,R9
	OUT  0x8,R8
	OUT  0x8,R11
	OUT  0x8,R10
	OUT  0x8,R5
	OUT  0x8,R4
	OUT  0x8,R7
	OUT  0x8,R6
	OUT  0x8,R9
	OUT  0x8,R8
	OUT  0x8,R11
	OUT  0x8,R10
	OUT  0x8,R5
	OUT  0x8,R4
	OUT  0x8,R7
	OUT  0x8,R6
	OUT  0x8,R9
	OUT  0x8,R8
	OUT  0x8,R11
	OUT  0x8,R10
	OUT  0x8,R5
	OUT  0x8,R4
	OUT  0x8,R7
	OUT  0x8,R6
	OUT  0x8,R9
	OUT  0x8,R8
	OUT  0x8,R11
	OUT  0x8,R10
	OUT  0x8,R5
	OUT  0x8,R4
	OUT  0x8,R7
	OUT  0x8,R6
	OUT  0x8,R9
	OUT  0x8,R8
	OUT  0x8,R11
	OUT  0x8,R10
	OUT  0x8,R5
	OUT  0x8,R4
	OUT  0x8,R7
	OUT  0x8,R6
	OUT  0x8,R9
	OUT  0x8,R8
	OUT  0x8,R11
	OUT  0x8,R10
	OUT  0x8,R5
	OUT  0x8,R4
	OUT  0x8,R7
	OUT  0x8,R6
	OUT  0x8,R9
	OUT  0x8,R8
	OUT  0x8,R11
	OUT  0x8,R10
	OUT  0x8,R5
	OUT  0x8,R4
	OUT  0x8,R7
	OUT  0x8,R6
	OUT  0x8,R9
	OUT  0x8,R8
	OUT  0x8,R11
	OUT  0x8,R10
	OUT  0x8,R5
	OUT  0x8,R4
	OUT  0x8,R7
	OUT  0x8,R6
	OUT  0x8,R9
	OUT  0x8,R8
	OUT  0x8,R11
	OUT  0x8,R10
	OUT  0x8,R5
	OUT  0x8,R4
	OUT  0x8,R7
	OUT  0x8,R6
	OUT  0x8,R9
	OUT  0x8,R8
	OUT  0x8,R11
	OUT  0x8,R10
	OUT  0x8,R5
	OUT  0x8,R4
	OUT  0x8,R7
	OUT  0x8,R6
	OUT  0x8,R9
	OUT  0x8,R8
	OUT  0x8,R11
	OUT  0x8,R10
	OUT  0x8,R5
	OUT  0x8,R4
	OUT  0x8,R7
	OUT  0x8,R6
	OUT  0x8,R9
	OUT  0x8,R8
	OUT  0x8,R11
	OUT  0x8,R10
	OUT  0x8,R5
	OUT  0x8,R4
	OUT  0x8,R7
	OUT  0x8,R6
	OUT  0x8,R9
	OUT  0x8,R8
	OUT  0x8,R11
	OUT  0x8,R10
	OUT  0x8,R5
	OUT  0x8,R4
	OUT  0x8,R7
	OUT  0x8,R6
	OUT  0x8,R9
	OUT  0x8,R8
	OUT  0x8,R11
	OUT  0x8,R10
	OUT  0x8,R5
	OUT  0x8,R4
	OUT  0x8,R7
	OUT  0x8,R6
	OUT  0x8,R9
	OUT  0x8,R8
	OUT  0x8,R11
	OUT  0x8,R10
	OUT  0x8,R5
	OUT  0x8,R4
	OUT  0x8,R7
	OUT  0x8,R6
	OUT  0x8,R9
	OUT  0x8,R8
	OUT  0x8,R11
	OUT  0x8,R10
	OUT  0x8,R5
	OUT  0x8,R4
	OUT  0x8,R7
	OUT  0x8,R6
	OUT  0x8,R9
	OUT  0x8,R8
	OUT  0x8,R11
	OUT  0x8,R10
	OUT  0x8,R5
	OUT  0x8,R4
	OUT  0x8,R7
	OUT  0x8,R6
	OUT  0x8,R9
	OUT  0x8,R8
	OUT  0x8,R11
	OUT  0x8,R10
	OUT  0x8,R5
	OUT  0x8,R4
	OUT  0x8,R7
	OUT  0x8,R6
	OUT  0x8,R9
	OUT  0x8,R8
	OUT  0x8,R11
	OUT  0x8,R10
	OUT  0x8,R5
	OUT  0x8,R4
	OUT  0x8,R7
	OUT  0x8,R6
	OUT  0x8,R9
	OUT  0x8,R8
	OUT  0x8,R11
	OUT  0x8,R10
	OUT  0x8,R5
	OUT  0x8,R4
	OUT  0x8,R7
	OUT  0x8,R6
	OUT  0x8,R9
	OUT  0x8,R8
	OUT  0x8,R11
	OUT  0x8,R10
	OUT  0x8,R5
	OUT  0x8,R4
	OUT  0x8,R7
	OUT  0x8,R6
	OUT  0x8,R9
	OUT  0x8,R8
	OUT  0x8,R11
	OUT  0x8,R10
	OUT  0x8,R5
	OUT  0x8,R4
	OUT  0x8,R7
	OUT  0x8,R6
	OUT  0x8,R9
	OUT  0x8,R8
	OUT  0x8,R11
	OUT  0x8,R10
	OUT  0x8,R5
	OUT  0x8,R4
	OUT  0x8,R7
	OUT  0x8,R6
	OUT  0x8,R9
	OUT  0x8,R8
	OUT  0x8,R11
	OUT  0x8,R10
	OUT  0x8,R5
	OUT  0x8,R4
	OUT  0x8,R7
	OUT  0x8,R6
	OUT  0x8,R9
	OUT  0x8,R8
	OUT  0x8,R11
	OUT  0x8,R10
	OUT  0x8,R5
	OUT  0x8,R4
	OUT  0x8,R7
	OUT  0x8,R6
	OUT  0x8,R9
	OUT  0x8,R8
	OUT  0x8,R11
	OUT  0x8,R10
	OUT  0x8,R5
	OUT  0x8,R4
	OUT  0x8,R7
	OUT  0x8,R6
	OUT  0x8,R9
	OUT  0x8,R8
	OUT  0x8,R11
	OUT  0x8,R10
	OUT  0x8,R5
	OUT  0x8,R4
	OUT  0x8,R7
	OUT  0x8,R6
	OUT  0x8,R9
	OUT  0x8,R8
	OUT  0x8,R11
	OUT  0x8,R10
	OUT  0x8,R5
	OUT  0x8,R4
	OUT  0x8,R7
	OUT  0x8,R6
	OUT  0x8,R9
	OUT  0x8,R8
	OUT  0x8,R11
	OUT  0x8,R10
	OUT  0x8,R5
	OUT  0x8,R4
	OUT  0x8,R7
	OUT  0x8,R6
	OUT  0x8,R9
	OUT  0x8,R8
	OUT  0x8,R11
	OUT  0x8,R10
	OUT  0x8,R5
	OUT  0x8,R4
	OUT  0x8,R7
	OUT  0x8,R6
	OUT  0x8,R9
	OUT  0x8,R8
	OUT  0x8,R11
	OUT  0x8,R10
	OUT  0x8,R5
	OUT  0x8,R4
	OUT  0x8,R7
	OUT  0x8,R6
	OUT  0x8,R9
	OUT  0x8,R8
	OUT  0x8,R11
	OUT  0x8,R10
	OUT  0x8,R5
	OUT  0x8,R4
	OUT  0x8,R7
	OUT  0x8,R6
	OUT  0x8,R9
	OUT  0x8,R8
	OUT  0x8,R11
	OUT  0x8,R10
	OUT  0x8,R5
	OUT  0x8,R4
	OUT  0x8,R7
	OUT  0x8,R6
	OUT  0x8,R9
	OUT  0x8,R8
	OUT  0x8,R11
	OUT  0x8,R10
	OUT  0x8,R5
	OUT  0x8,R4
	OUT  0x8,R7
	OUT  0x8,R6
	OUT  0x8,R9
	OUT  0x8,R8
	OUT  0x8,R11
	OUT  0x8,R10
	OUT  0x8,R5
	OUT  0x8,R4
	OUT  0x8,R7
	OUT  0x8,R6
	OUT  0x8,R9
	OUT  0x8,R8
	OUT  0x8,R11
	OUT  0x8,R10
	OUT  0x8,R5
	OUT  0x8,R4
	OUT  0x8,R7
	OUT  0x8,R6
	OUT  0x8,R9
	OUT  0x8,R8
	OUT  0x8,R11
	OUT  0x8,R10
	OUT  0x8,R5
	OUT  0x8,R4
	OUT  0x8,R7
	OUT  0x8,R6
	OUT  0x8,R9
	OUT  0x8,R8
	OUT  0x8,R11
	OUT  0x8,R10
	OUT  0x8,R5
	OUT  0x8,R4
	OUT  0x8,R7
	OUT  0x8,R6
	OUT  0x8,R9
	OUT  0x8,R8
	OUT  0x8,R11
	OUT  0x8,R10
	OUT  0x8,R5
	OUT  0x8,R4
	OUT  0x8,R7
	OUT  0x8,R6
	OUT  0x8,R9
	OUT  0x8,R8
	OUT  0x8,R11
	OUT  0x8,R10
	OUT  0x8,R5
	OUT  0x8,R4
	OUT  0x8,R7
	OUT  0x8,R6
	OUT  0x8,R9
	OUT  0x8,R8
	OUT  0x8,R11
	OUT  0x8,R10
	OUT  0x8,R5
	OUT  0x8,R4
	OUT  0x8,R7
	OUT  0x8,R6
	OUT  0x8,R9
	OUT  0x8,R8
	OUT  0x8,R11
	OUT  0x8,R10
	OUT  0x8,R5
	OUT  0x8,R4
	OUT  0x8,R7
	OUT  0x8,R6
	OUT  0x8,R9
	OUT  0x8,R8
	OUT  0x8,R11
	OUT  0x8,R10
	OUT  0x8,R5
	OUT  0x8,R4
	OUT  0x8,R7
	OUT  0x8,R6
	OUT  0x8,R9
	OUT  0x8,R8
	OUT  0x8,R11
	OUT  0x8,R10
	OUT  0x8,R5
	OUT  0x8,R4
	OUT  0x8,R7
	OUT  0x8,R6
	OUT  0x8,R9
	OUT  0x8,R8
	OUT  0x8,R11
	OUT  0x8,R10
	OUT  0x8,R5
	OUT  0x8,R4
	OUT  0x8,R7
	OUT  0x8,R6
	OUT  0x8,R9
	OUT  0x8,R8
	OUT  0x8,R11
	OUT  0x8,R10
	OUT  0x8,R5
	OUT  0x8,R4
	OUT  0x8,R7
	OUT  0x8,R6
	OUT  0x8,R9
	OUT  0x8,R8
	OUT  0x8,R11
	OUT  0x8,R10
	OUT  0x8,R5
	OUT  0x8,R4
	OUT  0x8,R7
	OUT  0x8,R6
	OUT  0x8,R9
	OUT  0x8,R8
	OUT  0x8,R11
	OUT  0x8,R10
	OUT  0x8,R5
	OUT  0x8,R4
	OUT  0x8,R7
	OUT  0x8,R6
	OUT  0x8,R9
	OUT  0x8,R8
	OUT  0x8,R11
	OUT  0x8,R10
	OUT  0x8,R5
	OUT  0x8,R4
	OUT  0x8,R7
	OUT  0x8,R6
	OUT  0x8,R9
	OUT  0x8,R8
	OUT  0x8,R11
	OUT  0x8,R10
	OUT  0x8,R5
	OUT  0x8,R4
	OUT  0x8,R7
	OUT  0x8,R6
	OUT  0x8,R9
	OUT  0x8,R8
	OUT  0x8,R11
	OUT  0x8,R10
	OUT  0x8,R5
	OUT  0x8,R4
	OUT  0x8,R7
	OUT  0x8,R6
	OUT  0x8,R9
	OUT  0x8,R8
	OUT  0x8,R11
	OUT  0x8,R10
	OUT  0x8,R5
	OUT  0x8,R4
	OUT  0x8,R7
	OUT  0x8,R6
	OUT  0x8,R9
	OUT  0x8,R8
	OUT  0x8,R11
	OUT  0x8,R10
	OUT  0x8,R5
	OUT  0x8,R4
	OUT  0x8,R7
	OUT  0x8,R6
	OUT  0x8,R9
	OUT  0x8,R8
	OUT  0x8,R11
	OUT  0x8,R10
	OUT  0x8,R5
	OUT  0x8,R4
	OUT  0x8,R7
	OUT  0x8,R6
	OUT  0x8,R9
	OUT  0x8,R8
	OUT  0x8,R11
	OUT  0x8,R10
	OUT  0x8,R5
	OUT  0x8,R4
	OUT  0x8,R7
	OUT  0x8,R6
	OUT  0x8,R9
	OUT  0x8,R8
	OUT  0x8,R11
	OUT  0x8,R10
	OUT  0x8,R5
	OUT  0x8,R4
	OUT  0x8,R7
	OUT  0x8,R6
	OUT  0x8,R9
	OUT  0x8,R8
	OUT  0x8,R11
	OUT  0x8,R10
	OUT  0x8,R5
	OUT  0x8,R4
	OUT  0x8,R7
	OUT  0x8,R6
	OUT  0x8,R9
	OUT  0x8,R8
	OUT  0x8,R11
	OUT  0x8,R10
	OUT  0x8,R5
	OUT  0x8,R4
	OUT  0x8,R7
	OUT  0x8,R6
	OUT  0x8,R9
	OUT  0x8,R8
	OUT  0x8,R11
	OUT  0x8,R10
	OUT  0x8,R5
	OUT  0x8,R4
	OUT  0x8,R7
	OUT  0x8,R6
	OUT  0x8,R9
	OUT  0x8,R8
	OUT  0x8,R11
	OUT  0x8,R10
	OUT  0x8,R5
	OUT  0x8,R4
	OUT  0x8,R7
	OUT  0x8,R6
	OUT  0x8,R9
	OUT  0x8,R8
	OUT  0x8,R11
	OUT  0x8,R10
	OUT  0x8,R5
	OUT  0x8,R4
	OUT  0x8,R7
	OUT  0x8,R6
	OUT  0x8,R9
	OUT  0x8,R8
	OUT  0x8,R11
	OUT  0x8,R10
	OUT  0x8,R5
	OUT  0x8,R4
	OUT  0x8,R7
	OUT  0x8,R6
	OUT  0x8,R9
	OUT  0x8,R8
	OUT  0x8,R11
	OUT  0x8,R10
	OUT  0x8,R5
	OUT  0x8,R4
	OUT  0x8,R7
	OUT  0x8,R6
	OUT  0x8,R9
	OUT  0x8,R8
	OUT  0x8,R11
	OUT  0x8,R10
	OUT  0x8,R5
	OUT  0x8,R4
	OUT  0x8,R7
	OUT  0x8,R6
	OUT  0x8,R9
	OUT  0x8,R8
	OUT  0x8,R11
	OUT  0x8,R10
	OUT  0x8,R5
	OUT  0x8,R4
	OUT  0x8,R7
	OUT  0x8,R6
	OUT  0x8,R9
	OUT  0x8,R8
	OUT  0x8,R11
	OUT  0x8,R10
	OUT  0x8,R5
	OUT  0x8,R4
	OUT  0x8,R7
	OUT  0x8,R6
	OUT  0x8,R9
	OUT  0x8,R8
	OUT  0x8,R11
	OUT  0x8,R10
	OUT  0x8,R5
	OUT  0x8,R4
	OUT  0x8,R7
	OUT  0x8,R6
	OUT  0x8,R9
	OUT  0x8,R8
	OUT  0x8,R11
	OUT  0x8,R10
	OUT  0x8,R5
	OUT  0x8,R4
	OUT  0x8,R7
	OUT  0x8,R6
	OUT  0x8,R9
	OUT  0x8,R8
	OUT  0x8,R11
	OUT  0x8,R10
	OUT  0x8,R5
	OUT  0x8,R4
	OUT  0x8,R7
	OUT  0x8,R6
	OUT  0x8,R9
	OUT  0x8,R8
	OUT  0x8,R11
	OUT  0x8,R10
	OUT  0x8,R5
	OUT  0x8,R4
	OUT  0x8,R7
	OUT  0x8,R6
	OUT  0x8,R9
	OUT  0x8,R8
	OUT  0x8,R11
	OUT  0x8,R10
	OUT  0x8,R5
	OUT  0x8,R4
	OUT  0x8,R7
	OUT  0x8,R6
	OUT  0x8,R9
	OUT  0x8,R8
	OUT  0x8,R11
	OUT  0x8,R10
	OUT  0x8,R5
	OUT  0x8,R4
	OUT  0x8,R7
	OUT  0x8,R6
	OUT  0x8,R9
	OUT  0x8,R8
	OUT  0x8,R11
	OUT  0x8,R10
	OUT  0x8,R5
	OUT  0x8,R4
	OUT  0x8,R7
	OUT  0x8,R6
	OUT  0x8,R9
	OUT  0x8,R8
	OUT  0x8,R11
	OUT  0x8,R10
	OUT  0x8,R5
	OUT  0x8,R4
	OUT  0x8,R7
	OUT  0x8,R6
	OUT  0x8,R9
	OUT  0x8,R8
	OUT  0x8,R11
	OUT  0x8,R10
	OUT  0x8,R5
	OUT  0x8,R4
	OUT  0x8,R7
	OUT  0x8,R6
	OUT  0x8,R9
	OUT  0x8,R8
	OUT  0x8,R11
	OUT  0x8,R10
	OUT  0x8,R5
	OUT  0x8,R4
	OUT  0x8,R7
	OUT  0x8,R6
	OUT  0x8,R9
	OUT  0x8,R8
	OUT  0x8,R11
	OUT  0x8,R10
	OUT  0x8,R5
	OUT  0x8,R4
	OUT  0x8,R7
	OUT  0x8,R6
	OUT  0x8,R9
	OUT  0x8,R8
	OUT  0x8,R11
	OUT  0x8,R10
	OUT  0x8,R5
	OUT  0x8,R4
	OUT  0x8,R7
	OUT  0x8,R6
	OUT  0x8,R9
	OUT  0x8,R8
	OUT  0x8,R11
	OUT  0x8,R10
	OUT  0x8,R5
	OUT  0x8,R4
	OUT  0x8,R7
	OUT  0x8,R6
	OUT  0x8,R9
	OUT  0x8,R8
	OUT  0x8,R11
	OUT  0x8,R10
	OUT  0x8,R5
	OUT  0x8,R4
	OUT  0x8,R7
	OUT  0x8,R6
	OUT  0x8,R9
	OUT  0x8,R8
	OUT  0x8,R11
	OUT  0x8,R10
	OUT  0x8,R5
	OUT  0x8,R4
	OUT  0x8,R7
	OUT  0x8,R6
	OUT  0x8,R9
	OUT  0x8,R8
	OUT  0x8,R11
	OUT  0x8,R10
	OUT  0x8,R5
	OUT  0x8,R4
	OUT  0x8,R7
	OUT  0x8,R6
	OUT  0x8,R9
	OUT  0x8,R8
	OUT  0x8,R11
	OUT  0x8,R10
	OUT  0x8,R5
	OUT  0x8,R4
	OUT  0x8,R7
	OUT  0x8,R6
	OUT  0x8,R9
	OUT  0x8,R8
	OUT  0x8,R11
	OUT  0x8,R10
	OUT  0x8,R5
	OUT  0x8,R4
	OUT  0x8,R7
	OUT  0x8,R6
	OUT  0x8,R9
	OUT  0x8,R8
	OUT  0x8,R11
	OUT  0x8,R10
	OUT  0x8,R5
	OUT  0x8,R4
	OUT  0x8,R7
	OUT  0x8,R6
	OUT  0x8,R9
	OUT  0x8,R8
	OUT  0x8,R11
	OUT  0x8,R10
	OUT  0x8,R5
	OUT  0x8,R4
	OUT  0x8,R7
	OUT  0x8,R6
	OUT  0x8,R9
	OUT  0x8,R8
	OUT  0x8,R11
	OUT  0x8,R10
	OUT  0x8,R5
	OUT  0x8,R4
	OUT  0x8,R7
	OUT  0x8,R6
	OUT  0x8,R9
	OUT  0x8,R8
	OUT  0x8,R11
	OUT  0x8,R10
	OUT  0x8,R5
	OUT  0x8,R4
	OUT  0x8,R7
	OUT  0x8,R6
	OUT  0x8,R9
	OUT  0x8,R8
	OUT  0x8,R11
	OUT  0x8,R10
	OUT  0x8,R5
	OUT  0x8,R4
	OUT  0x8,R7
	OUT  0x8,R6
	OUT  0x8,R9
	OUT  0x8,R8
	OUT  0x8,R11
	OUT  0x8,R10
	OUT  0x8,R5
	OUT  0x8,R4
	OUT  0x8,R7
	OUT  0x8,R6
	OUT  0x8,R9
	OUT  0x8,R8
	OUT  0x8,R11
	OUT  0x8,R10
	OUT  0x8,R5
	OUT  0x8,R4
	OUT  0x8,R7
	OUT  0x8,R6
	OUT  0x8,R9
	OUT  0x8,R8
	OUT  0x8,R11
	OUT  0x8,R10
	OUT  0x8,R5
	OUT  0x8,R4
	OUT  0x8,R7
	OUT  0x8,R6
	OUT  0x8,R9
	OUT  0x8,R8
	OUT  0x8,R11
	OUT  0x8,R10
	OUT  0x8,R5
	OUT  0x8,R4
	OUT  0x8,R7
	OUT  0x8,R6
	OUT  0x8,R9
	OUT  0x8,R8
	OUT  0x8,R11
	OUT  0x8,R10
	OUT  0x8,R5
	OUT  0x8,R4
	OUT  0x8,R7
	OUT  0x8,R6
	OUT  0x8,R9
	OUT  0x8,R8
	OUT  0x8,R11
	OUT  0x8,R10
	OUT  0x8,R5
	OUT  0x8,R4
	OUT  0x8,R7
	OUT  0x8,R6
	OUT  0x8,R9
	OUT  0x8,R8
	OUT  0x8,R11
	OUT  0x8,R10
	OUT  0x8,R5
	OUT  0x8,R4
	OUT  0x8,R7
	OUT  0x8,R6
	OUT  0x8,R9
	OUT  0x8,R8
	OUT  0x8,R11
	OUT  0x8,R10
	OUT  0x8,R5
	OUT  0x8,R4
	OUT  0x8,R7
	OUT  0x8,R6
	OUT  0x8,R9
	OUT  0x8,R8
	OUT  0x8,R11
	OUT  0x8,R10
	OUT  0x8,R5
	OUT  0x8,R4
	OUT  0x8,R7
	OUT  0x8,R6
	OUT  0x8,R9
	OUT  0x8,R8
	OUT  0x8,R11
	OUT  0x8,R10
	OUT  0x8,R5
	OUT  0x8,R4
	OUT  0x8,R7
	OUT  0x8,R6
	OUT  0x8,R9
	OUT  0x8,R8
	OUT  0x8,R11
	OUT  0x8,R10
	OUT  0x8,R5
	OUT  0x8,R4
	OUT  0x8,R7
	OUT  0x8,R6
	OUT  0x8,R9
	OUT  0x8,R8
	OUT  0x8,R11
	OUT  0x8,R10
	OUT  0x8,R5
	OUT  0x8,R4
	OUT  0x8,R7
	OUT  0x8,R6
	OUT  0x8,R9
	OUT  0x8,R8
	OUT  0x8,R11
	OUT  0x8,R10
	OUT  0x8,R5
	OUT  0x8,R4
	OUT  0x8,R7
	OUT  0x8,R6
	OUT  0x8,R9
	OUT  0x8,R8
	OUT  0x8,R11
	OUT  0x8,R10
	OUT  0x8,R5
	OUT  0x8,R4
	OUT  0x8,R7
	OUT  0x8,R6
	OUT  0x8,R9
	OUT  0x8,R8
	OUT  0x8,R11
	OUT  0x8,R10
	OUT  0x8,R5
	OUT  0x8,R4
	OUT  0x8,R7
	OUT  0x8,R6
	OUT  0x8,R9
	OUT  0x8,R8
	OUT  0x8,R11
	OUT  0x8,R10
	OUT  0x8,R5
	OUT  0x8,R4
	OUT  0x8,R7
	OUT  0x8,R6
	OUT  0x8,R9
	OUT  0x8,R8
	OUT  0x8,R11
	OUT  0x8,R10
	OUT  0x8,R5
	OUT  0x8,R4
	OUT  0x8,R7
	OUT  0x8,R6
	OUT  0x8,R9
	OUT  0x8,R8
	OUT  0x8,R11
	OUT  0x8,R10
	OUT  0x8,R5
	OUT  0x8,R4
	OUT  0x8,R7
	OUT  0x8,R6
	OUT  0x8,R9
	OUT  0x8,R8
	OUT  0x8,R11
	OUT  0x8,R10
	OUT  0x8,R5
	OUT  0x8,R4
	OUT  0x8,R7
	OUT  0x8,R6
	OUT  0x8,R9
	OUT  0x8,R8
	OUT  0x8,R11
	OUT  0x8,R10
	OUT  0x8,R5
	OUT  0x8,R4
	OUT  0x8,R7
	OUT  0x8,R6
	OUT  0x8,R9
	OUT  0x8,R8
	OUT  0x8,R11
	OUT  0x8,R10
	OUT  0x8,R5
	OUT  0x8,R4
	OUT  0x8,R7
	OUT  0x8,R6
	OUT  0x8,R9
	OUT  0x8,R8
	OUT  0x8,R11
	OUT  0x8,R10
	OUT  0x8,R5
	OUT  0x8,R4
	OUT  0x8,R7
	OUT  0x8,R6
	OUT  0x8,R9
	OUT  0x8,R8
	OUT  0x8,R11
	OUT  0x8,R10
	OUT  0x8,R5
	OUT  0x8,R4
	OUT  0x8,R7
	OUT  0x8,R6
	OUT  0x8,R9
	OUT  0x8,R8
	OUT  0x8,R11
	OUT  0x8,R10
	OUT  0x8,R5
	OUT  0x8,R4
	OUT  0x8,R7
	OUT  0x8,R6
	OUT  0x8,R9
	OUT  0x8,R8
	OUT  0x8,R11
	OUT  0x8,R10
	OUT  0x8,R5
	OUT  0x8,R4
	OUT  0x8,R7
	OUT  0x8,R6
	OUT  0x8,R9
	OUT  0x8,R8
	OUT  0x8,R11
	OUT  0x8,R10
	OUT  0x8,R5
	OUT  0x8,R4
	OUT  0x8,R7
	OUT  0x8,R6
	OUT  0x8,R9
	OUT  0x8,R8
	OUT  0x8,R11
	OUT  0x8,R10
	OUT  0x8,R5
	OUT  0x8,R4
	OUT  0x8,R7
	OUT  0x8,R6
	OUT  0x8,R9
	OUT  0x8,R8
	OUT  0x8,R11
	OUT  0x8,R10
	OUT  0x8,R5
	OUT  0x8,R4
	OUT  0x8,R7
	OUT  0x8,R6
	OUT  0x8,R9
	OUT  0x8,R8
	OUT  0x8,R11
	OUT  0x8,R10
	OUT  0x8,R5
	OUT  0x8,R4
	OUT  0x8,R7
	OUT  0x8,R6
	OUT  0x8,R9
	OUT  0x8,R8
	OUT  0x8,R11
	OUT  0x8,R10
	OUT  0x8,R5
	OUT  0x8,R4
	OUT  0x8,R7
	OUT  0x8,R6
	OUT  0x8,R9
	OUT  0x8,R8
	OUT  0x8,R11
	OUT  0x8,R10
	OUT  0x8,R5
	OUT  0x8,R4
	OUT  0x8,R7
	OUT  0x8,R6
	OUT  0x8,R9
	OUT  0x8,R8
	OUT  0x8,R11
	OUT  0x8,R10
	OUT  0x8,R5
	OUT  0x8,R4
	OUT  0x8,R7
	OUT  0x8,R6
	OUT  0x8,R9
	OUT  0x8,R8
	OUT  0x8,R11
	OUT  0x8,R10
	OUT  0x8,R5
	OUT  0x8,R4
	OUT  0x8,R7
	OUT  0x8,R6
	OUT  0x8,R9
	OUT  0x8,R8
	OUT  0x8,R11
	OUT  0x8,R10
	OUT  0x8,R5
	OUT  0x8,R4
	OUT  0x8,R7
	OUT  0x8,R6
	OUT  0x8,R9
	OUT  0x8,R8
	OUT  0x8,R11
	OUT  0x8,R10
	OUT  0x8,R5
	OUT  0x8,R4
	OUT  0x8,R7
	OUT  0x8,R6
	OUT  0x8,R9
	OUT  0x8,R8
	OUT  0x8,R11
	OUT  0x8,R10
	OUT  0x8,R5
	OUT  0x8,R4
	OUT  0x8,R7
	OUT  0x8,R6
	OUT  0x8,R9
	OUT  0x8,R8
	OUT  0x8,R11
	OUT  0x8,R10
	OUT  0x8,R5
	OUT  0x8,R4
	OUT  0x8,R7
	OUT  0x8,R6
	OUT  0x8,R9
	OUT  0x8,R8
	OUT  0x8,R11
	OUT  0x8,R10
	OUT  0x8,R5
	OUT  0x8,R4
	OUT  0x8,R7
	OUT  0x8,R6
	OUT  0x8,R9
	OUT  0x8,R8
	OUT  0x8,R11
	OUT  0x8,R10
	OUT  0x8,R5
	OUT  0x8,R4
	OUT  0x8,R7
	OUT  0x8,R6
	OUT  0x8,R9
	OUT  0x8,R8
	OUT  0x8,R11
	OUT  0x8,R10
	OUT  0x8,R5
	OUT  0x8,R4
	OUT  0x8,R7
	OUT  0x8,R6
	OUT  0x8,R9
	OUT  0x8,R8
	OUT  0x8,R11
	OUT  0x8,R10
	OUT  0x8,R5
	OUT  0x8,R4
	OUT  0x8,R7
	OUT  0x8,R6
	OUT  0x8,R9
	OUT  0x8,R8
	OUT  0x8,R11
	OUT  0x8,R10
	OUT  0x8,R5
	OUT  0x8,R4
	OUT  0x8,R7
	OUT  0x8,R6
	OUT  0x8,R9
	OUT  0x8,R8
	OUT  0x8,R11
	OUT  0x8,R10
	OUT  0x8,R5
	OUT  0x8,R4
	OUT  0x8,R7
	OUT  0x8,R6
	OUT  0x8,R9
	OUT  0x8,R8
	OUT  0x8,R11
	OUT  0x8,R10
	OUT  0x8,R5
	OUT  0x8,R4
	OUT  0x8,R7
	OUT  0x8,R6
	OUT  0x8,R9
	OUT  0x8,R8
	OUT  0x8,R11
	OUT  0x8,R10
	OUT  0x8,R5
	OUT  0x8,R4
	OUT  0x8,R7
	OUT  0x8,R6
	OUT  0x8,R9
	OUT  0x8,R8
	OUT  0x8,R11
	OUT  0x8,R10
	OUT  0x8,R5
	OUT  0x8,R4
	OUT  0x8,R7
	OUT  0x8,R6
	OUT  0x8,R9
	OUT  0x8,R8
	OUT  0x8,R11
	OUT  0x8,R10
	OUT  0x8,R5
	OUT  0x8,R4
	OUT  0x8,R7
	OUT  0x8,R6
	OUT  0x8,R9
	OUT  0x8,R8
	OUT  0x8,R11
	OUT  0x8,R10
	OUT  0x8,R5
	OUT  0x8,R4
	OUT  0x8,R7
	OUT  0x8,R6
	OUT  0x8,R9
	OUT  0x8,R8
	OUT  0x8,R11
	OUT  0x8,R10
	OUT  0x8,R5
	OUT  0x8,R4
	OUT  0x8,R7
	OUT  0x8,R6
	OUT  0x8,R9
	OUT  0x8,R8
	OUT  0x8,R11
	OUT  0x8,R10
	OUT  0x8,R5
	OUT  0x8,R4
	OUT  0x8,R7
	OUT  0x8,R6
	OUT  0x8,R9
	OUT  0x8,R8
	OUT  0x8,R11
	OUT  0x8,R10
	OUT  0x8,R5
	OUT  0x8,R4
	OUT  0x8,R7
	OUT  0x8,R6
	OUT  0x8,R9
	OUT  0x8,R8
	OUT  0x8,R11
	OUT  0x8,R10
	OUT  0x8,R5
	OUT  0x8,R4
	OUT  0x8,R7
	OUT  0x8,R6
	OUT  0x8,R9
	OUT  0x8,R8
	OUT  0x8,R11
	OUT  0x8,R10
	OUT  0x8,R5
	OUT  0x8,R4
	OUT  0x8,R7
	OUT  0x8,R6
	OUT  0x8,R9
	OUT  0x8,R8
	OUT  0x8,R11
	OUT  0x8,R10
	OUT  0x8,R5
	OUT  0x8,R4
	OUT  0x8,R7
	OUT  0x8,R6
	OUT  0x8,R9
	OUT  0x8,R8
	OUT  0x8,R11
	OUT  0x8,R10
	OUT  0x8,R5
	OUT  0x8,R4
	OUT  0x8,R7
	OUT  0x8,R6
	OUT  0x8,R9
	OUT  0x8,R8
	OUT  0x8,R11
	OUT  0x8,R10
	OUT  0x8,R5
	OUT  0x8,R4
	OUT  0x8,R7
	OUT  0x8,R6
	OUT  0x8,R9
	OUT  0x8,R8
	OUT  0x8,R11
	OUT  0x8,R10
	OUT  0x8,R5
	OUT  0x8,R4
	OUT  0x8,R7
	OUT  0x8,R6
	OUT  0x8,R9
	OUT  0x8,R8
	OUT  0x8,R11
	OUT  0x8,R10
	OUT  0x8,R5
	OUT  0x8,R4
	OUT  0x8,R7
	OUT  0x8,R6
	OUT  0x8,R9
	OUT  0x8,R8
	OUT  0x8,R11
	OUT  0x8,R10
	OUT  0x8,R5
	OUT  0x8,R4
	OUT  0x8,R7
	OUT  0x8,R6
	OUT  0x8,R9
	OUT  0x8,R8
	OUT  0x8,R11
	OUT  0x8,R10
	OUT  0x8,R5
	OUT  0x8,R4
	OUT  0x8,R7
	OUT  0x8,R6
	OUT  0x8,R9
	OUT  0x8,R8
	OUT  0x8,R11
	OUT  0x8,R10
	OUT  0x8,R5
	OUT  0x8,R4
	OUT  0x8,R7
	OUT  0x8,R6
	OUT  0x8,R9
	OUT  0x8,R8
	OUT  0x8,R11
	OUT  0x8,R10
	OUT  0x8,R5
	OUT  0x8,R4
	OUT  0x8,R7
	OUT  0x8,R6
	OUT  0x8,R9
	OUT  0x8,R8
	OUT  0x8,R11
	OUT  0x8,R10
	OUT  0x8,R5
	OUT  0x8,R4
	OUT  0x8,R7
	OUT  0x8,R6
	OUT  0x8,R9
	OUT  0x8,R8
	OUT  0x8,R11
	OUT  0x8,R10
	OUT  0x8,R5
	OUT  0x8,R4
	OUT  0x8,R7
	OUT  0x8,R6
	OUT  0x8,R9
	OUT  0x8,R8
	OUT  0x8,R11
	OUT  0x8,R10
	OUT  0x8,R5
	OUT  0x8,R4
	OUT  0x8,R7
	OUT  0x8,R6
	OUT  0x8,R9
	OUT  0x8,R8
	OUT  0x8,R11
	OUT  0x8,R10
	OUT  0x8,R5
	OUT  0x8,R4
	OUT  0x8,R7
	OUT  0x8,R6
	OUT  0x8,R9
	OUT  0x8,R8
	OUT  0x8,R11
	OUT  0x8,R10
	OUT  0x8,R5
	OUT  0x8,R4
	OUT  0x8,R7
	OUT  0x8,R6
	OUT  0x8,R9
	OUT  0x8,R8
	OUT  0x8,R11
	OUT  0x8,R10
	OUT  0x8,R5
	OUT  0x8,R4
	OUT  0x8,R7
	OUT  0x8,R6
	OUT  0x8,R9
	OUT  0x8,R8
	OUT  0x8,R11
	OUT  0x8,R10
	OUT  0x8,R5
	OUT  0x8,R4
	OUT  0x8,R7
	OUT  0x8,R6
	OUT  0x8,R9
	OUT  0x8,R8
	OUT  0x8,R11
	OUT  0x8,R10
	OUT  0x8,R5
	OUT  0x8,R4
	OUT  0x8,R7
	OUT  0x8,R6
	OUT  0x8,R9
	OUT  0x8,R8
	OUT  0x8,R11
	OUT  0x8,R10
	OUT  0x8,R5
	OUT  0x8,R4
	OUT  0x8,R7
	OUT  0x8,R6
	OUT  0x8,R9
	OUT  0x8,R8
	OUT  0x8,R11
	OUT  0x8,R10
	OUT  0x8,R5
	OUT  0x8,R4
	OUT  0x8,R7
	OUT  0x8,R6
	OUT  0x8,R9
	OUT  0x8,R8
	OUT  0x8,R11
	OUT  0x8,R10
	OUT  0x8,R5
	OUT  0x8,R4
	OUT  0x8,R7
	OUT  0x8,R6
	OUT  0x8,R9
	OUT  0x8,R8
	OUT  0x8,R11
	OUT  0x8,R10
	OUT  0x8,R5
	OUT  0x8,R4
	OUT  0x8,R7
	OUT  0x8,R6
	OUT  0x8,R9
	OUT  0x8,R8
	OUT  0x8,R11
	OUT  0x8,R10
	OUT  0x8,R5
	OUT  0x8,R4
	OUT  0x8,R7
	OUT  0x8,R6
	OUT  0x8,R9
	OUT  0x8,R8
	OUT  0x8,R11
	OUT  0x8,R10
	OUT  0x8,R5
	OUT  0x8,R4
	OUT  0x8,R7
	OUT  0x8,R6
	OUT  0x8,R9
	OUT  0x8,R8
	OUT  0x8,R11
	OUT  0x8,R10
	OUT  0x8,R5
	OUT  0x8,R4
	OUT  0x8,R7
	OUT  0x8,R6
	OUT  0x8,R9
	OUT  0x8,R8
	OUT  0x8,R11
	OUT  0x8,R10
	OUT  0x8,R5
	OUT  0x8,R4
	OUT  0x8,R7
	OUT  0x8,R6
	OUT  0x8,R9
	OUT  0x8,R8
	OUT  0x8,R11
	OUT  0x8,R10
	OUT  0x8,R5
	OUT  0x8,R4
	OUT  0x8,R7
	OUT  0x8,R6
	OUT  0x8,R9
	OUT  0x8,R8
	OUT  0x8,R11
	OUT  0x8,R10
	OUT  0x8,R5
	OUT  0x8,R4
	OUT  0x8,R7
	OUT  0x8,R6
	OUT  0x8,R9
	OUT  0x8,R8
	OUT  0x8,R11
	OUT  0x8,R10
	OUT  0x8,R5
	OUT  0x8,R4
	OUT  0x8,R7
	OUT  0x8,R6
	OUT  0x8,R9
	OUT  0x8,R8
	OUT  0x8,R11
	OUT  0x8,R10
	OUT  0x8,R5
	OUT  0x8,R4
	OUT  0x8,R7
	OUT  0x8,R6
	OUT  0x8,R9
	OUT  0x8,R8
	OUT  0x8,R11
	OUT  0x8,R10
	OUT  0x8,R5
	OUT  0x8,R4
	OUT  0x8,R7
	OUT  0x8,R6
	OUT  0x8,R9
	OUT  0x8,R8
	OUT  0x8,R11
	OUT  0x8,R10
	OUT  0x8,R5
	OUT  0x8,R4
	OUT  0x8,R7
	OUT  0x8,R6
	OUT  0x8,R9
	OUT  0x8,R8
	OUT  0x8,R11
	OUT  0x8,R10
	OUT  0x8,R5
	OUT  0x8,R4
	OUT  0x8,R7
	OUT  0x8,R6
	OUT  0x8,R9
	OUT  0x8,R8
	OUT  0x8,R11
	OUT  0x8,R10
	OUT  0x8,R5
	OUT  0x8,R4
	OUT  0x8,R7
	OUT  0x8,R6
	OUT  0x8,R9
	OUT  0x8,R8
	OUT  0x8,R11
	OUT  0x8,R10
	OUT  0x8,R5
	OUT  0x8,R4
	OUT  0x8,R7
	OUT  0x8,R6
	OUT  0x8,R9
	OUT  0x8,R8
	OUT  0x8,R11
	OUT  0x8,R10
	OUT  0x8,R5
	OUT  0x8,R4
	OUT  0x8,R7
	OUT  0x8,R6
	OUT  0x8,R9
	OUT  0x8,R8
	OUT  0x8,R11
	OUT  0x8,R10
	OUT  0x8,R5
	OUT  0x8,R4
	OUT  0x8,R7
	OUT  0x8,R6
	OUT  0x8,R9
	OUT  0x8,R8
	OUT  0x8,R11
	OUT  0x8,R10
	OUT  0x8,R5
	OUT  0x8,R4
	OUT  0x8,R7
	OUT  0x8,R6
	OUT  0x8,R9
	OUT  0x8,R8
	OUT  0x8,R11
	OUT  0x8,R10
	OUT  0x8,R5
	OUT  0x8,R4
	OUT  0x8,R7
	OUT  0x8,R6
	OUT  0x8,R9
	OUT  0x8,R8
	OUT  0x8,R11
	OUT  0x8,R10
	OUT  0x8,R5
	OUT  0x8,R4
	OUT  0x8,R7
	OUT  0x8,R6
	OUT  0x8,R9
	OUT  0x8,R8
	OUT  0x8,R11
	OUT  0x8,R10
	OUT  0x8,R5
	OUT  0x8,R4
	OUT  0x8,R7
	OUT  0x8,R6
	OUT  0x8,R9
	OUT  0x8,R8
	OUT  0x8,R11
	OUT  0x8,R10
	OUT  0x8,R5
	OUT  0x8,R4
	OUT  0x8,R7
	OUT  0x8,R6
	OUT  0x8,R9
	OUT  0x8,R8
	OUT  0x8,R11
	OUT  0x8,R10
	OUT  0x8,R5
	OUT  0x8,R4
	OUT  0x8,R7
	OUT  0x8,R6
	OUT  0x8,R9
	OUT  0x8,R8
	OUT  0x8,R11
	OUT  0x8,R10
	OUT  0x8,R5
	OUT  0x8,R4
	OUT  0x8,R7
	OUT  0x8,R6
	OUT  0x8,R9
	OUT  0x8,R8
	OUT  0x8,R11
	OUT  0x8,R10
	OUT  0x8,R5
	OUT  0x8,R4
	OUT  0x8,R7
	OUT  0x8,R6
	OUT  0x8,R9
	OUT  0x8,R8
	OUT  0x8,R11
	OUT  0x8,R10
	OUT  0x8,R5
	OUT  0x8,R4
	OUT  0x8,R7
	OUT  0x8,R6
	OUT  0x8,R9
	OUT  0x8,R8
	OUT  0x8,R11
	OUT  0x8,R10
	OUT  0x8,R5
	OUT  0x8,R4
	OUT  0x8,R7
	OUT  0x8,R6
	OUT  0x8,R9
	OUT  0x8,R8
	OUT  0x8,R11
	OUT  0x8,R10
	OUT  0x8,R5
	OUT  0x8,R4
	OUT  0x8,R7
	OUT  0x8,R6
	OUT  0x8,R9
	OUT  0x8,R8
	OUT  0x8,R11
	OUT  0x8,R10
	OUT  0x8,R5
	OUT  0x8,R4
	OUT  0x8,R7
	OUT  0x8,R6
	OUT  0x8,R9
	OUT  0x8,R8
	OUT  0x8,R11
	OUT  0x8,R10
	OUT  0x8,R5
	OUT  0x8,R4
	OUT  0x8,R7
	OUT  0x8,R6
	OUT  0x8,R9
	OUT  0x8,R8
	OUT  0x8,R11
	OUT  0x8,R10
	OUT  0x8,R5
	OUT  0x8,R4
	OUT  0x8,R7
	OUT  0x8,R6
	OUT  0x8,R9
	OUT  0x8,R8
	OUT  0x8,R11
	OUT  0x8,R10
	OUT  0x8,R5
	OUT  0x8,R4
	OUT  0x8,R7
	OUT  0x8,R6
	OUT  0x8,R9
	OUT  0x8,R8
	OUT  0x8,R11
	OUT  0x8,R10
	OUT  0x8,R5
	OUT  0x8,R4
	OUT  0x8,R7
	OUT  0x8,R6
	OUT  0x8,R9
	OUT  0x8,R8
	OUT  0x8,R11
	OUT  0x8,R10
	OUT  0x8,R5
	OUT  0x8,R4
	OUT  0x8,R7
	OUT  0x8,R6
	OUT  0x8,R9
	OUT  0x8,R8
	OUT  0x8,R11
	OUT  0x8,R10
	OUT  0x8,R5
	OUT  0x8,R4
	OUT  0x8,R7
	OUT  0x8,R6
	OUT  0x8,R9
	OUT  0x8,R8
	OUT  0x8,R11
	OUT  0x8,R10
	OUT  0x8,R5
	OUT  0x8,R4
	OUT  0x8,R7
	OUT  0x8,R6
	OUT  0x8,R9
	OUT  0x8,R8
	OUT  0x8,R11
	OUT  0x8,R10
	OUT  0x8,R5
	OUT  0x8,R4
	OUT  0x8,R7
	OUT  0x8,R6
	OUT  0x8,R9
	OUT  0x8,R8
	OUT  0x8,R11
	OUT  0x8,R10
	OUT  0x8,R5
	OUT  0x8,R4
	OUT  0x8,R7
	OUT  0x8,R6
	OUT  0x8,R9
	OUT  0x8,R8
	OUT  0x8,R11
	OUT  0x8,R10
	OUT  0x8,R5
	OUT  0x8,R4
	OUT  0x8,R7
	OUT  0x8,R6
	OUT  0x8,R9
	OUT  0x8,R8
	OUT  0x8,R11
	OUT  0x8,R10
	OUT  0x8,R5
	OUT  0x8,R4
	OUT  0x8,R7
	OUT  0x8,R6
	OUT  0x8,R9
	OUT  0x8,R8
	OUT  0x8,R11
	OUT  0x8,R10
	OUT  0x8,R5
	OUT  0x8,R4
	OUT  0x8,R7
	OUT  0x8,R6
	OUT  0x8,R9
	OUT  0x8,R8
	OUT  0x8,R11
	OUT  0x8,R10
	OUT  0x8,R5
	OUT  0x8,R4
	OUT  0x8,R7
	OUT  0x8,R6
	OUT  0x8,R9
	OUT  0x8,R8
	OUT  0x8,R11
	OUT  0x8,R10
	OUT  0x8,R5
	OUT  0x8,R4
	OUT  0x8,R7
	OUT  0x8,R6
	OUT  0x8,R9
	OUT  0x8,R8
	OUT  0x8,R11
	OUT  0x8,R10
	OUT  0x8,R5
	OUT  0x8,R4
	OUT  0x8,R7
	OUT  0x8,R6
	OUT  0x8,R9
	OUT  0x8,R8
	OUT  0x8,R11
	OUT  0x8,R10
	OUT  0x8,R5
	OUT  0x8,R4
	OUT  0x8,R7
	OUT  0x8,R6
	OUT  0x8,R9
	OUT  0x8,R8
	OUT  0x8,R11
	OUT  0x8,R10
	OUT  0x8,R5
	OUT  0x8,R4
	OUT  0x8,R7
	OUT  0x8,R6
	OUT  0x8,R9
	OUT  0x8,R8
	OUT  0x8,R11
	OUT  0x8,R10
	OUT  0x8,R5
	OUT  0x8,R4
	OUT  0x8,R7
	OUT  0x8,R6
	OUT  0x8,R9
	OUT  0x8,R8
	OUT  0x8,R11
	OUT  0x8,R10
	OUT  0x8,R5
	OUT  0x8,R4
	OUT  0x8,R7
	OUT  0x8,R6
	OUT  0x8,R9
	OUT  0x8,R8
	OUT  0x8,R11
	OUT  0x8,R10
	OUT  0x8,R5
	OUT  0x8,R4
	OUT  0x8,R7
	OUT  0x8,R6
	OUT  0x8,R9
	OUT  0x8,R8
	OUT  0x8,R11
	OUT  0x8,R10
	OUT  0x8,R5
	OUT  0x8,R4
	OUT  0x8,R7
	OUT  0x8,R6
	OUT  0x8,R9
	OUT  0x8,R8
	OUT  0x8,R11
	OUT  0x8,R10
	OUT  0x8,R5
	OUT  0x8,R4
	OUT  0x8,R7
	OUT  0x8,R6
	OUT  0x8,R9
	OUT  0x8,R8
	OUT  0x8,R11
	OUT  0x8,R10
	OUT  0x8,R5
	OUT  0x8,R4
	OUT  0x8,R7
	OUT  0x8,R6
	OUT  0x8,R9
	OUT  0x8,R8
	OUT  0x8,R11
	OUT  0x8,R10
	OUT  0x8,R5
	OUT  0x8,R4
	OUT  0x8,R7
	OUT  0x8,R6
	OUT  0x8,R9
	OUT  0x8,R8
	OUT  0x8,R11
	OUT  0x8,R10
	OUT  0x8,R5
	OUT  0x8,R4
	OUT  0x8,R7
	OUT  0x8,R6
	OUT  0x8,R9
	OUT  0x8,R8
	OUT  0x8,R11
	OUT  0x8,R10
	OUT  0x8,R5
	OUT  0x8,R4
	OUT  0x8,R7
	OUT  0x8,R6
	OUT  0x8,R9
	OUT  0x8,R8
	OUT  0x8,R11
	OUT  0x8,R10
	OUT  0x8,R5
	OUT  0x8,R4
	OUT  0x8,R7
	OUT  0x8,R6
	OUT  0x8,R9
	OUT  0x8,R8
	OUT  0x8,R11
	OUT  0x8,R10
	OUT  0x8,R5
	OUT  0x8,R4
	OUT  0x8,R7
	OUT  0x8,R6
	OUT  0x8,R9
	OUT  0x8,R8
	OUT  0x8,R11
	OUT  0x8,R10
	OUT  0x8,R5
	OUT  0x8,R4
	OUT  0x8,R7
	OUT  0x8,R6
	OUT  0x8,R9
	OUT  0x8,R8
	OUT  0x8,R11
	OUT  0x8,R10
; 0000 021E         pixel1000
	OUT  0x8,R5
	OUT  0x8,R4
	OUT  0x8,R7
	OUT  0x8,R6
	OUT  0x8,R9
	OUT  0x8,R8
	OUT  0x8,R11
	OUT  0x8,R10
	OUT  0x8,R5
	OUT  0x8,R4
	OUT  0x8,R7
	OUT  0x8,R6
	OUT  0x8,R9
	OUT  0x8,R8
	OUT  0x8,R11
	OUT  0x8,R10
	OUT  0x8,R5
	OUT  0x8,R4
	OUT  0x8,R7
	OUT  0x8,R6
	OUT  0x8,R9
	OUT  0x8,R8
	OUT  0x8,R11
	OUT  0x8,R10
	OUT  0x8,R5
	OUT  0x8,R4
	OUT  0x8,R7
	OUT  0x8,R6
	OUT  0x8,R9
	OUT  0x8,R8
	OUT  0x8,R11
	OUT  0x8,R10
	OUT  0x8,R5
	OUT  0x8,R4
	OUT  0x8,R7
	OUT  0x8,R6
	OUT  0x8,R9
	OUT  0x8,R8
	OUT  0x8,R11
	OUT  0x8,R10
	OUT  0x8,R5
	OUT  0x8,R4
	OUT  0x8,R7
	OUT  0x8,R6
	OUT  0x8,R9
	OUT  0x8,R8
	OUT  0x8,R11
	OUT  0x8,R10
	OUT  0x8,R5
	OUT  0x8,R4
	OUT  0x8,R7
	OUT  0x8,R6
	OUT  0x8,R9
	OUT  0x8,R8
	OUT  0x8,R11
	OUT  0x8,R10
	OUT  0x8,R5
	OUT  0x8,R4
	OUT  0x8,R7
	OUT  0x8,R6
	OUT  0x8,R9
	OUT  0x8,R8
	OUT  0x8,R11
	OUT  0x8,R10
	OUT  0x8,R5
	OUT  0x8,R4
	OUT  0x8,R7
	OUT  0x8,R6
	OUT  0x8,R9
	OUT  0x8,R8
	OUT  0x8,R11
	OUT  0x8,R10
	OUT  0x8,R5
	OUT  0x8,R4
	OUT  0x8,R7
	OUT  0x8,R6
	OUT  0x8,R9
	OUT  0x8,R8
	OUT  0x8,R11
	OUT  0x8,R10
	OUT  0x8,R5
	OUT  0x8,R4
	OUT  0x8,R7
	OUT  0x8,R6
	OUT  0x8,R9
	OUT  0x8,R8
	OUT  0x8,R11
	OUT  0x8,R10
	OUT  0x8,R5
	OUT  0x8,R4
	OUT  0x8,R7
	OUT  0x8,R6
	OUT  0x8,R9
	OUT  0x8,R8
	OUT  0x8,R11
	OUT  0x8,R10
	OUT  0x8,R5
	OUT  0x8,R4
	OUT  0x8,R7
	OUT  0x8,R6
	OUT  0x8,R9
	OUT  0x8,R8
	OUT  0x8,R11
	OUT  0x8,R10
	OUT  0x8,R5
	OUT  0x8,R4
	OUT  0x8,R7
	OUT  0x8,R6
	OUT  0x8,R9
	OUT  0x8,R8
	OUT  0x8,R11
	OUT  0x8,R10
	OUT  0x8,R5
	OUT  0x8,R4
	OUT  0x8,R7
	OUT  0x8,R6
	OUT  0x8,R9
	OUT  0x8,R8
	OUT  0x8,R11
	OUT  0x8,R10
	OUT  0x8,R5
	OUT  0x8,R4
	OUT  0x8,R7
	OUT  0x8,R6
	OUT  0x8,R9
	OUT  0x8,R8
	OUT  0x8,R11
	OUT  0x8,R10
	OUT  0x8,R5
	OUT  0x8,R4
	OUT  0x8,R7
	OUT  0x8,R6
	OUT  0x8,R9
	OUT  0x8,R8
	OUT  0x8,R11
	OUT  0x8,R10
	OUT  0x8,R5
	OUT  0x8,R4
	OUT  0x8,R7
	OUT  0x8,R6
	OUT  0x8,R9
	OUT  0x8,R8
	OUT  0x8,R11
	OUT  0x8,R10
	OUT  0x8,R5
	OUT  0x8,R4
	OUT  0x8,R7
	OUT  0x8,R6
	OUT  0x8,R9
	OUT  0x8,R8
	OUT  0x8,R11
	OUT  0x8,R10
	OUT  0x8,R5
	OUT  0x8,R4
	OUT  0x8,R7
	OUT  0x8,R6
	OUT  0x8,R9
	OUT  0x8,R8
	OUT  0x8,R11
	OUT  0x8,R10
	OUT  0x8,R5
	OUT  0x8,R4
	OUT  0x8,R7
	OUT  0x8,R6
	OUT  0x8,R9
	OUT  0x8,R8
	OUT  0x8,R11
	OUT  0x8,R10
	OUT  0x8,R5
	OUT  0x8,R4
	OUT  0x8,R7
	OUT  0x8,R6
	OUT  0x8,R9
	OUT  0x8,R8
	OUT  0x8,R11
	OUT  0x8,R10
	OUT  0x8,R5
	OUT  0x8,R4
	OUT  0x8,R7
	OUT  0x8,R6
	OUT  0x8,R9
	OUT  0x8,R8
	OUT  0x8,R11
	OUT  0x8,R10
	OUT  0x8,R5
	OUT  0x8,R4
	OUT  0x8,R7
	OUT  0x8,R6
	OUT  0x8,R9
	OUT  0x8,R8
	OUT  0x8,R11
	OUT  0x8,R10
	OUT  0x8,R5
	OUT  0x8,R4
	OUT  0x8,R7
	OUT  0x8,R6
	OUT  0x8,R9
	OUT  0x8,R8
	OUT  0x8,R11
	OUT  0x8,R10
	OUT  0x8,R5
	OUT  0x8,R4
	OUT  0x8,R7
	OUT  0x8,R6
	OUT  0x8,R9
	OUT  0x8,R8
	OUT  0x8,R11
	OUT  0x8,R10
	OUT  0x8,R5
	OUT  0x8,R4
	OUT  0x8,R7
	OUT  0x8,R6
	OUT  0x8,R9
	OUT  0x8,R8
	OUT  0x8,R11
	OUT  0x8,R10
	OUT  0x8,R5
	OUT  0x8,R4
	OUT  0x8,R7
	OUT  0x8,R6
	OUT  0x8,R9
	OUT  0x8,R8
	OUT  0x8,R11
	OUT  0x8,R10
	OUT  0x8,R5
	OUT  0x8,R4
	OUT  0x8,R7
	OUT  0x8,R6
	OUT  0x8,R9
	OUT  0x8,R8
	OUT  0x8,R11
	OUT  0x8,R10
	OUT  0x8,R5
	OUT  0x8,R4
	OUT  0x8,R7
	OUT  0x8,R6
	OUT  0x8,R9
	OUT  0x8,R8
	OUT  0x8,R11
	OUT  0x8,R10
	OUT  0x8,R5
	OUT  0x8,R4
	OUT  0x8,R7
	OUT  0x8,R6
	OUT  0x8,R9
	OUT  0x8,R8
	OUT  0x8,R11
	OUT  0x8,R10
	OUT  0x8,R5
	OUT  0x8,R4
	OUT  0x8,R7
	OUT  0x8,R6
	OUT  0x8,R9
	OUT  0x8,R8
	OUT  0x8,R11
	OUT  0x8,R10
	OUT  0x8,R5
	OUT  0x8,R4
	OUT  0x8,R7
	OUT  0x8,R6
	OUT  0x8,R9
	OUT  0x8,R8
	OUT  0x8,R11
	OUT  0x8,R10
	OUT  0x8,R5
	OUT  0x8,R4
	OUT  0x8,R7
	OUT  0x8,R6
	OUT  0x8,R9
	OUT  0x8,R8
	OUT  0x8,R11
	OUT  0x8,R10
	OUT  0x8,R5
	OUT  0x8,R4
	OUT  0x8,R7
	OUT  0x8,R6
	OUT  0x8,R9
	OUT  0x8,R8
	OUT  0x8,R11
	OUT  0x8,R10
	OUT  0x8,R5
	OUT  0x8,R4
	OUT  0x8,R7
	OUT  0x8,R6
	OUT  0x8,R9
	OUT  0x8,R8
	OUT  0x8,R11
	OUT  0x8,R10
	OUT  0x8,R5
	OUT  0x8,R4
	OUT  0x8,R7
	OUT  0x8,R6
	OUT  0x8,R9
	OUT  0x8,R8
	OUT  0x8,R11
	OUT  0x8,R10
	OUT  0x8,R5
	OUT  0x8,R4
	OUT  0x8,R7
	OUT  0x8,R6
	OUT  0x8,R9
	OUT  0x8,R8
	OUT  0x8,R11
	OUT  0x8,R10
	OUT  0x8,R5
	OUT  0x8,R4
	OUT  0x8,R7
	OUT  0x8,R6
	OUT  0x8,R9
	OUT  0x8,R8
	OUT  0x8,R11
	OUT  0x8,R10
	OUT  0x8,R5
	OUT  0x8,R4
	OUT  0x8,R7
	OUT  0x8,R6
	OUT  0x8,R9
	OUT  0x8,R8
	OUT  0x8,R11
	OUT  0x8,R10
	OUT  0x8,R5
	OUT  0x8,R4
	OUT  0x8,R7
	OUT  0x8,R6
	OUT  0x8,R9
	OUT  0x8,R8
	OUT  0x8,R11
	OUT  0x8,R10
	OUT  0x8,R5
	OUT  0x8,R4
	OUT  0x8,R7
	OUT  0x8,R6
	OUT  0x8,R9
	OUT  0x8,R8
	OUT  0x8,R11
	OUT  0x8,R10
	OUT  0x8,R5
	OUT  0x8,R4
	OUT  0x8,R7
	OUT  0x8,R6
	OUT  0x8,R9
	OUT  0x8,R8
	OUT  0x8,R11
	OUT  0x8,R10
	OUT  0x8,R5
	OUT  0x8,R4
	OUT  0x8,R7
	OUT  0x8,R6
	OUT  0x8,R9
	OUT  0x8,R8
	OUT  0x8,R11
	OUT  0x8,R10
	OUT  0x8,R5
	OUT  0x8,R4
	OUT  0x8,R7
	OUT  0x8,R6
	OUT  0x8,R9
	OUT  0x8,R8
	OUT  0x8,R11
	OUT  0x8,R10
	OUT  0x8,R5
	OUT  0x8,R4
	OUT  0x8,R7
	OUT  0x8,R6
	OUT  0x8,R9
	OUT  0x8,R8
	OUT  0x8,R11
	OUT  0x8,R10
	OUT  0x8,R5
	OUT  0x8,R4
	OUT  0x8,R7
	OUT  0x8,R6
	OUT  0x8,R9
	OUT  0x8,R8
	OUT  0x8,R11
	OUT  0x8,R10
	OUT  0x8,R5
	OUT  0x8,R4
	OUT  0x8,R7
	OUT  0x8,R6
	OUT  0x8,R9
	OUT  0x8,R8
	OUT  0x8,R11
	OUT  0x8,R10
	OUT  0x8,R5
	OUT  0x8,R4
	OUT  0x8,R7
	OUT  0x8,R6
	OUT  0x8,R9
	OUT  0x8,R8
	OUT  0x8,R11
	OUT  0x8,R10
	OUT  0x8,R5
	OUT  0x8,R4
	OUT  0x8,R7
	OUT  0x8,R6
	OUT  0x8,R9
	OUT  0x8,R8
	OUT  0x8,R11
	OUT  0x8,R10
	OUT  0x8,R5
	OUT  0x8,R4
	OUT  0x8,R7
	OUT  0x8,R6
	OUT  0x8,R9
	OUT  0x8,R8
	OUT  0x8,R11
	OUT  0x8,R10
	OUT  0x8,R5
	OUT  0x8,R4
	OUT  0x8,R7
	OUT  0x8,R6
	OUT  0x8,R9
	OUT  0x8,R8
	OUT  0x8,R11
	OUT  0x8,R10
	OUT  0x8,R5
	OUT  0x8,R4
	OUT  0x8,R7
	OUT  0x8,R6
	OUT  0x8,R9
	OUT  0x8,R8
	OUT  0x8,R11
	OUT  0x8,R10
	OUT  0x8,R5
	OUT  0x8,R4
	OUT  0x8,R7
	OUT  0x8,R6
	OUT  0x8,R9
	OUT  0x8,R8
	OUT  0x8,R11
	OUT  0x8,R10
	OUT  0x8,R5
	OUT  0x8,R4
	OUT  0x8,R7
	OUT  0x8,R6
	OUT  0x8,R9
	OUT  0x8,R8
	OUT  0x8,R11
	OUT  0x8,R10
	OUT  0x8,R5
	OUT  0x8,R4
	OUT  0x8,R7
	OUT  0x8,R6
	OUT  0x8,R9
	OUT  0x8,R8
	OUT  0x8,R11
	OUT  0x8,R10
	OUT  0x8,R5
	OUT  0x8,R4
	OUT  0x8,R7
	OUT  0x8,R6
	OUT  0x8,R9
	OUT  0x8,R8
	OUT  0x8,R11
	OUT  0x8,R10
	OUT  0x8,R5
	OUT  0x8,R4
	OUT  0x8,R7
	OUT  0x8,R6
	OUT  0x8,R9
	OUT  0x8,R8
	OUT  0x8,R11
	OUT  0x8,R10
	OUT  0x8,R5
	OUT  0x8,R4
	OUT  0x8,R7
	OUT  0x8,R6
	OUT  0x8,R9
	OUT  0x8,R8
	OUT  0x8,R11
	OUT  0x8,R10
	OUT  0x8,R5
	OUT  0x8,R4
	OUT  0x8,R7
	OUT  0x8,R6
	OUT  0x8,R9
	OUT  0x8,R8
	OUT  0x8,R11
	OUT  0x8,R10
	OUT  0x8,R5
	OUT  0x8,R4
	OUT  0x8,R7
	OUT  0x8,R6
	OUT  0x8,R9
	OUT  0x8,R8
	OUT  0x8,R11
	OUT  0x8,R10
	OUT  0x8,R5
	OUT  0x8,R4
	OUT  0x8,R7
	OUT  0x8,R6
	OUT  0x8,R9
	OUT  0x8,R8
	OUT  0x8,R11
	OUT  0x8,R10
	OUT  0x8,R5
	OUT  0x8,R4
	OUT  0x8,R7
	OUT  0x8,R6
	OUT  0x8,R9
	OUT  0x8,R8
	OUT  0x8,R11
	OUT  0x8,R10
	OUT  0x8,R5
	OUT  0x8,R4
	OUT  0x8,R7
	OUT  0x8,R6
	OUT  0x8,R9
	OUT  0x8,R8
	OUT  0x8,R11
	OUT  0x8,R10
	OUT  0x8,R5
	OUT  0x8,R4
	OUT  0x8,R7
	OUT  0x8,R6
	OUT  0x8,R9
	OUT  0x8,R8
	OUT  0x8,R11
	OUT  0x8,R10
	OUT  0x8,R5
	OUT  0x8,R4
	OUT  0x8,R7
	OUT  0x8,R6
	OUT  0x8,R9
	OUT  0x8,R8
	OUT  0x8,R11
	OUT  0x8,R10
	OUT  0x8,R5
	OUT  0x8,R4
	OUT  0x8,R7
	OUT  0x8,R6
	OUT  0x8,R9
	OUT  0x8,R8
	OUT  0x8,R11
	OUT  0x8,R10
	OUT  0x8,R5
	OUT  0x8,R4
	OUT  0x8,R7
	OUT  0x8,R6
	OUT  0x8,R9
	OUT  0x8,R8
	OUT  0x8,R11
	OUT  0x8,R10
	OUT  0x8,R5
	OUT  0x8,R4
	OUT  0x8,R7
	OUT  0x8,R6
	OUT  0x8,R9
	OUT  0x8,R8
	OUT  0x8,R11
	OUT  0x8,R10
	OUT  0x8,R5
	OUT  0x8,R4
	OUT  0x8,R7
	OUT  0x8,R6
	OUT  0x8,R9
	OUT  0x8,R8
	OUT  0x8,R11
	OUT  0x8,R10
	OUT  0x8,R5
	OUT  0x8,R4
	OUT  0x8,R7
	OUT  0x8,R6
	OUT  0x8,R9
	OUT  0x8,R8
	OUT  0x8,R11
	OUT  0x8,R10
	OUT  0x8,R5
	OUT  0x8,R4
	OUT  0x8,R7
	OUT  0x8,R6
	OUT  0x8,R9
	OUT  0x8,R8
	OUT  0x8,R11
	OUT  0x8,R10
	OUT  0x8,R5
	OUT  0x8,R4
	OUT  0x8,R7
	OUT  0x8,R6
	OUT  0x8,R9
	OUT  0x8,R8
	OUT  0x8,R11
	OUT  0x8,R10
	OUT  0x8,R5
	OUT  0x8,R4
	OUT  0x8,R7
	OUT  0x8,R6
	OUT  0x8,R9
	OUT  0x8,R8
	OUT  0x8,R11
	OUT  0x8,R10
	OUT  0x8,R5
	OUT  0x8,R4
	OUT  0x8,R7
	OUT  0x8,R6
	OUT  0x8,R9
	OUT  0x8,R8
	OUT  0x8,R11
	OUT  0x8,R10
	OUT  0x8,R5
	OUT  0x8,R4
	OUT  0x8,R7
	OUT  0x8,R6
	OUT  0x8,R9
	OUT  0x8,R8
	OUT  0x8,R11
	OUT  0x8,R10
	OUT  0x8,R5
	OUT  0x8,R4
	OUT  0x8,R7
	OUT  0x8,R6
	OUT  0x8,R9
	OUT  0x8,R8
	OUT  0x8,R11
	OUT  0x8,R10
	OUT  0x8,R5
	OUT  0x8,R4
	OUT  0x8,R7
	OUT  0x8,R6
	OUT  0x8,R9
	OUT  0x8,R8
	OUT  0x8,R11
	OUT  0x8,R10
	OUT  0x8,R5
	OUT  0x8,R4
	OUT  0x8,R7
	OUT  0x8,R6
	OUT  0x8,R9
	OUT  0x8,R8
	OUT  0x8,R11
	OUT  0x8,R10
	OUT  0x8,R5
	OUT  0x8,R4
	OUT  0x8,R7
	OUT  0x8,R6
	OUT  0x8,R9
	OUT  0x8,R8
	OUT  0x8,R11
	OUT  0x8,R10
	OUT  0x8,R5
	OUT  0x8,R4
	OUT  0x8,R7
	OUT  0x8,R6
	OUT  0x8,R9
	OUT  0x8,R8
	OUT  0x8,R11
	OUT  0x8,R10
	OUT  0x8,R5
	OUT  0x8,R4
	OUT  0x8,R7
	OUT  0x8,R6
	OUT  0x8,R9
	OUT  0x8,R8
	OUT  0x8,R11
	OUT  0x8,R10
	OUT  0x8,R5
	OUT  0x8,R4
	OUT  0x8,R7
	OUT  0x8,R6
	OUT  0x8,R9
	OUT  0x8,R8
	OUT  0x8,R11
	OUT  0x8,R10
	OUT  0x8,R5
	OUT  0x8,R4
	OUT  0x8,R7
	OUT  0x8,R6
	OUT  0x8,R9
	OUT  0x8,R8
	OUT  0x8,R11
	OUT  0x8,R10
	OUT  0x8,R5
	OUT  0x8,R4
	OUT  0x8,R7
	OUT  0x8,R6
	OUT  0x8,R9
	OUT  0x8,R8
	OUT  0x8,R11
	OUT  0x8,R10
	OUT  0x8,R5
	OUT  0x8,R4
	OUT  0x8,R7
	OUT  0x8,R6
	OUT  0x8,R9
	OUT  0x8,R8
	OUT  0x8,R11
	OUT  0x8,R10
	OUT  0x8,R5
	OUT  0x8,R4
	OUT  0x8,R7
	OUT  0x8,R6
	OUT  0x8,R9
	OUT  0x8,R8
	OUT  0x8,R11
	OUT  0x8,R10
	OUT  0x8,R5
	OUT  0x8,R4
	OUT  0x8,R7
	OUT  0x8,R6
	OUT  0x8,R9
	OUT  0x8,R8
	OUT  0x8,R11
	OUT  0x8,R10
	OUT  0x8,R5
	OUT  0x8,R4
	OUT  0x8,R7
	OUT  0x8,R6
	OUT  0x8,R9
	OUT  0x8,R8
	OUT  0x8,R11
	OUT  0x8,R10
	OUT  0x8,R5
	OUT  0x8,R4
	OUT  0x8,R7
	OUT  0x8,R6
	OUT  0x8,R9
	OUT  0x8,R8
	OUT  0x8,R11
	OUT  0x8,R10
	OUT  0x8,R5
	OUT  0x8,R4
	OUT  0x8,R7
	OUT  0x8,R6
	OUT  0x8,R9
	OUT  0x8,R8
	OUT  0x8,R11
	OUT  0x8,R10
	OUT  0x8,R5
	OUT  0x8,R4
	OUT  0x8,R7
	OUT  0x8,R6
	OUT  0x8,R9
	OUT  0x8,R8
	OUT  0x8,R11
	OUT  0x8,R10
	OUT  0x8,R5
	OUT  0x8,R4
	OUT  0x8,R7
	OUT  0x8,R6
	OUT  0x8,R9
	OUT  0x8,R8
	OUT  0x8,R11
	OUT  0x8,R10
	OUT  0x8,R5
	OUT  0x8,R4
	OUT  0x8,R7
	OUT  0x8,R6
	OUT  0x8,R9
	OUT  0x8,R8
	OUT  0x8,R11
	OUT  0x8,R10
	OUT  0x8,R5
	OUT  0x8,R4
	OUT  0x8,R7
	OUT  0x8,R6
	OUT  0x8,R9
	OUT  0x8,R8
	OUT  0x8,R11
	OUT  0x8,R10
	OUT  0x8,R5
	OUT  0x8,R4
	OUT  0x8,R7
	OUT  0x8,R6
	OUT  0x8,R9
	OUT  0x8,R8
	OUT  0x8,R11
	OUT  0x8,R10
	OUT  0x8,R5
	OUT  0x8,R4
	OUT  0x8,R7
	OUT  0x8,R6
	OUT  0x8,R9
	OUT  0x8,R8
	OUT  0x8,R11
	OUT  0x8,R10
	OUT  0x8,R5
	OUT  0x8,R4
	OUT  0x8,R7
	OUT  0x8,R6
	OUT  0x8,R9
	OUT  0x8,R8
	OUT  0x8,R11
	OUT  0x8,R10
	OUT  0x8,R5
	OUT  0x8,R4
	OUT  0x8,R7
	OUT  0x8,R6
	OUT  0x8,R9
	OUT  0x8,R8
	OUT  0x8,R11
	OUT  0x8,R10
	OUT  0x8,R5
	OUT  0x8,R4
	OUT  0x8,R7
	OUT  0x8,R6
	OUT  0x8,R9
	OUT  0x8,R8
	OUT  0x8,R11
	OUT  0x8,R10
	OUT  0x8,R5
	OUT  0x8,R4
	OUT  0x8,R7
	OUT  0x8,R6
	OUT  0x8,R9
	OUT  0x8,R8
	OUT  0x8,R11
	OUT  0x8,R10
	OUT  0x8,R5
	OUT  0x8,R4
	OUT  0x8,R7
	OUT  0x8,R6
	OUT  0x8,R9
	OUT  0x8,R8
	OUT  0x8,R11
	OUT  0x8,R10
	OUT  0x8,R5
	OUT  0x8,R4
	OUT  0x8,R7
	OUT  0x8,R6
	OUT  0x8,R9
	OUT  0x8,R8
	OUT  0x8,R11
	OUT  0x8,R10
	OUT  0x8,R5
	OUT  0x8,R4
	OUT  0x8,R7
	OUT  0x8,R6
	OUT  0x8,R9
	OUT  0x8,R8
	OUT  0x8,R11
	OUT  0x8,R10
	OUT  0x8,R5
	OUT  0x8,R4
	OUT  0x8,R7
	OUT  0x8,R6
	OUT  0x8,R9
	OUT  0x8,R8
	OUT  0x8,R11
	OUT  0x8,R10
	OUT  0x8,R5
	OUT  0x8,R4
	OUT  0x8,R7
	OUT  0x8,R6
	OUT  0x8,R9
	OUT  0x8,R8
	OUT  0x8,R11
	OUT  0x8,R10
	OUT  0x8,R5
	OUT  0x8,R4
	OUT  0x8,R7
	OUT  0x8,R6
	OUT  0x8,R9
	OUT  0x8,R8
	OUT  0x8,R11
	OUT  0x8,R10
	OUT  0x8,R5
	OUT  0x8,R4
	OUT  0x8,R7
	OUT  0x8,R6
	OUT  0x8,R9
	OUT  0x8,R8
	OUT  0x8,R11
	OUT  0x8,R10
	OUT  0x8,R5
	OUT  0x8,R4
	OUT  0x8,R7
	OUT  0x8,R6
	OUT  0x8,R9
	OUT  0x8,R8
	OUT  0x8,R11
	OUT  0x8,R10
	OUT  0x8,R5
	OUT  0x8,R4
	OUT  0x8,R7
	OUT  0x8,R6
	OUT  0x8,R9
	OUT  0x8,R8
	OUT  0x8,R11
	OUT  0x8,R10
	OUT  0x8,R5
	OUT  0x8,R4
	OUT  0x8,R7
	OUT  0x8,R6
	OUT  0x8,R9
	OUT  0x8,R8
	OUT  0x8,R11
	OUT  0x8,R10
	OUT  0x8,R5
	OUT  0x8,R4
	OUT  0x8,R7
	OUT  0x8,R6
	OUT  0x8,R9
	OUT  0x8,R8
	OUT  0x8,R11
	OUT  0x8,R10
	OUT  0x8,R5
	OUT  0x8,R4
	OUT  0x8,R7
	OUT  0x8,R6
	OUT  0x8,R9
	OUT  0x8,R8
	OUT  0x8,R11
	OUT  0x8,R10
	OUT  0x8,R5
	OUT  0x8,R4
	OUT  0x8,R7
	OUT  0x8,R6
	OUT  0x8,R9
	OUT  0x8,R8
	OUT  0x8,R11
	OUT  0x8,R10
	OUT  0x8,R5
	OUT  0x8,R4
	OUT  0x8,R7
	OUT  0x8,R6
	OUT  0x8,R9
	OUT  0x8,R8
	OUT  0x8,R11
	OUT  0x8,R10
	OUT  0x8,R5
	OUT  0x8,R4
	OUT  0x8,R7
	OUT  0x8,R6
	OUT  0x8,R9
	OUT  0x8,R8
	OUT  0x8,R11
	OUT  0x8,R10
	OUT  0x8,R5
	OUT  0x8,R4
	OUT  0x8,R7
	OUT  0x8,R6
	OUT  0x8,R9
	OUT  0x8,R8
	OUT  0x8,R11
	OUT  0x8,R10
	OUT  0x8,R5
	OUT  0x8,R4
	OUT  0x8,R7
	OUT  0x8,R6
	OUT  0x8,R9
	OUT  0x8,R8
	OUT  0x8,R11
	OUT  0x8,R10
	OUT  0x8,R5
	OUT  0x8,R4
	OUT  0x8,R7
	OUT  0x8,R6
	OUT  0x8,R9
	OUT  0x8,R8
	OUT  0x8,R11
	OUT  0x8,R10
	OUT  0x8,R5
	OUT  0x8,R4
	OUT  0x8,R7
	OUT  0x8,R6
	OUT  0x8,R9
	OUT  0x8,R8
	OUT  0x8,R11
	OUT  0x8,R10
	OUT  0x8,R5
	OUT  0x8,R4
	OUT  0x8,R7
	OUT  0x8,R6
	OUT  0x8,R9
	OUT  0x8,R8
	OUT  0x8,R11
	OUT  0x8,R10
	OUT  0x8,R5
	OUT  0x8,R4
	OUT  0x8,R7
	OUT  0x8,R6
	OUT  0x8,R9
	OUT  0x8,R8
	OUT  0x8,R11
	OUT  0x8,R10
	OUT  0x8,R5
	OUT  0x8,R4
	OUT  0x8,R7
	OUT  0x8,R6
	OUT  0x8,R9
	OUT  0x8,R8
	OUT  0x8,R11
	OUT  0x8,R10
	OUT  0x8,R5
	OUT  0x8,R4
	OUT  0x8,R7
	OUT  0x8,R6
	OUT  0x8,R9
	OUT  0x8,R8
	OUT  0x8,R11
	OUT  0x8,R10
	OUT  0x8,R5
	OUT  0x8,R4
	OUT  0x8,R7
	OUT  0x8,R6
	OUT  0x8,R9
	OUT  0x8,R8
	OUT  0x8,R11
	OUT  0x8,R10
	OUT  0x8,R5
	OUT  0x8,R4
	OUT  0x8,R7
	OUT  0x8,R6
	OUT  0x8,R9
	OUT  0x8,R8
	OUT  0x8,R11
	OUT  0x8,R10
	OUT  0x8,R5
	OUT  0x8,R4
	OUT  0x8,R7
	OUT  0x8,R6
	OUT  0x8,R9
	OUT  0x8,R8
	OUT  0x8,R11
	OUT  0x8,R10
	OUT  0x8,R5
	OUT  0x8,R4
	OUT  0x8,R7
	OUT  0x8,R6
	OUT  0x8,R9
	OUT  0x8,R8
	OUT  0x8,R11
	OUT  0x8,R10
	OUT  0x8,R5
	OUT  0x8,R4
	OUT  0x8,R7
	OUT  0x8,R6
	OUT  0x8,R9
	OUT  0x8,R8
	OUT  0x8,R11
	OUT  0x8,R10
	OUT  0x8,R5
	OUT  0x8,R4
	OUT  0x8,R7
	OUT  0x8,R6
	OUT  0x8,R9
	OUT  0x8,R8
	OUT  0x8,R11
	OUT  0x8,R10
	OUT  0x8,R5
	OUT  0x8,R4
	OUT  0x8,R7
	OUT  0x8,R6
	OUT  0x8,R9
	OUT  0x8,R8
	OUT  0x8,R11
	OUT  0x8,R10
	OUT  0x8,R5
	OUT  0x8,R4
	OUT  0x8,R7
	OUT  0x8,R6
	OUT  0x8,R9
	OUT  0x8,R8
	OUT  0x8,R11
	OUT  0x8,R10
	OUT  0x8,R5
	OUT  0x8,R4
	OUT  0x8,R7
	OUT  0x8,R6
	OUT  0x8,R9
	OUT  0x8,R8
	OUT  0x8,R11
	OUT  0x8,R10
	OUT  0x8,R5
	OUT  0x8,R4
	OUT  0x8,R7
	OUT  0x8,R6
	OUT  0x8,R9
	OUT  0x8,R8
	OUT  0x8,R11
	OUT  0x8,R10
	OUT  0x8,R5
	OUT  0x8,R4
	OUT  0x8,R7
	OUT  0x8,R6
	OUT  0x8,R9
	OUT  0x8,R8
	OUT  0x8,R11
	OUT  0x8,R10
	OUT  0x8,R5
	OUT  0x8,R4
	OUT  0x8,R7
	OUT  0x8,R6
	OUT  0x8,R9
	OUT  0x8,R8
	OUT  0x8,R11
	OUT  0x8,R10
	OUT  0x8,R5
	OUT  0x8,R4
	OUT  0x8,R7
	OUT  0x8,R6
	OUT  0x8,R9
	OUT  0x8,R8
	OUT  0x8,R11
	OUT  0x8,R10
	OUT  0x8,R5
	OUT  0x8,R4
	OUT  0x8,R7
	OUT  0x8,R6
	OUT  0x8,R9
	OUT  0x8,R8
	OUT  0x8,R11
	OUT  0x8,R10
	OUT  0x8,R5
	OUT  0x8,R4
	OUT  0x8,R7
	OUT  0x8,R6
	OUT  0x8,R9
	OUT  0x8,R8
	OUT  0x8,R11
	OUT  0x8,R10
	OUT  0x8,R5
	OUT  0x8,R4
	OUT  0x8,R7
	OUT  0x8,R6
	OUT  0x8,R9
	OUT  0x8,R8
	OUT  0x8,R11
	OUT  0x8,R10
	OUT  0x8,R5
	OUT  0x8,R4
	OUT  0x8,R7
	OUT  0x8,R6
	OUT  0x8,R9
	OUT  0x8,R8
	OUT  0x8,R11
	OUT  0x8,R10
	OUT  0x8,R5
	OUT  0x8,R4
	OUT  0x8,R7
	OUT  0x8,R6
	OUT  0x8,R9
	OUT  0x8,R8
	OUT  0x8,R11
	OUT  0x8,R10
	OUT  0x8,R5
	OUT  0x8,R4
	OUT  0x8,R7
	OUT  0x8,R6
	OUT  0x8,R9
	OUT  0x8,R8
	OUT  0x8,R11
	OUT  0x8,R10
	OUT  0x8,R5
	OUT  0x8,R4
	OUT  0x8,R7
	OUT  0x8,R6
	OUT  0x8,R9
	OUT  0x8,R8
	OUT  0x8,R11
	OUT  0x8,R10
	OUT  0x8,R5
	OUT  0x8,R4
	OUT  0x8,R7
	OUT  0x8,R6
	OUT  0x8,R9
	OUT  0x8,R8
	OUT  0x8,R11
	OUT  0x8,R10
	OUT  0x8,R5
	OUT  0x8,R4
	OUT  0x8,R7
	OUT  0x8,R6
	OUT  0x8,R9
	OUT  0x8,R8
	OUT  0x8,R11
	OUT  0x8,R10
	OUT  0x8,R5
	OUT  0x8,R4
	OUT  0x8,R7
	OUT  0x8,R6
	OUT  0x8,R9
	OUT  0x8,R8
	OUT  0x8,R11
	OUT  0x8,R10
	OUT  0x8,R5
	OUT  0x8,R4
	OUT  0x8,R7
	OUT  0x8,R6
	OUT  0x8,R9
	OUT  0x8,R8
	OUT  0x8,R11
	OUT  0x8,R10
	OUT  0x8,R5
	OUT  0x8,R4
	OUT  0x8,R7
	OUT  0x8,R6
	OUT  0x8,R9
	OUT  0x8,R8
	OUT  0x8,R11
	OUT  0x8,R10
	OUT  0x8,R5
	OUT  0x8,R4
	OUT  0x8,R7
	OUT  0x8,R6
	OUT  0x8,R9
	OUT  0x8,R8
	OUT  0x8,R11
	OUT  0x8,R10
	OUT  0x8,R5
	OUT  0x8,R4
	OUT  0x8,R7
	OUT  0x8,R6
	OUT  0x8,R9
	OUT  0x8,R8
	OUT  0x8,R11
	OUT  0x8,R10
	OUT  0x8,R5
	OUT  0x8,R4
	OUT  0x8,R7
	OUT  0x8,R6
	OUT  0x8,R9
	OUT  0x8,R8
	OUT  0x8,R11
	OUT  0x8,R10
	OUT  0x8,R5
	OUT  0x8,R4
	OUT  0x8,R7
	OUT  0x8,R6
	OUT  0x8,R9
	OUT  0x8,R8
	OUT  0x8,R11
	OUT  0x8,R10
	OUT  0x8,R5
	OUT  0x8,R4
	OUT  0x8,R7
	OUT  0x8,R6
	OUT  0x8,R9
	OUT  0x8,R8
	OUT  0x8,R11
	OUT  0x8,R10
	OUT  0x8,R5
	OUT  0x8,R4
	OUT  0x8,R7
	OUT  0x8,R6
	OUT  0x8,R9
	OUT  0x8,R8
	OUT  0x8,R11
	OUT  0x8,R10
	OUT  0x8,R5
	OUT  0x8,R4
	OUT  0x8,R7
	OUT  0x8,R6
	OUT  0x8,R9
	OUT  0x8,R8
	OUT  0x8,R11
	OUT  0x8,R10
	OUT  0x8,R5
	OUT  0x8,R4
	OUT  0x8,R7
	OUT  0x8,R6
	OUT  0x8,R9
	OUT  0x8,R8
	OUT  0x8,R11
	OUT  0x8,R10
	OUT  0x8,R5
	OUT  0x8,R4
	OUT  0x8,R7
	OUT  0x8,R6
	OUT  0x8,R9
	OUT  0x8,R8
	OUT  0x8,R11
	OUT  0x8,R10
	OUT  0x8,R5
	OUT  0x8,R4
	OUT  0x8,R7
	OUT  0x8,R6
	OUT  0x8,R9
	OUT  0x8,R8
	OUT  0x8,R11
	OUT  0x8,R10
	OUT  0x8,R5
	OUT  0x8,R4
	OUT  0x8,R7
	OUT  0x8,R6
	OUT  0x8,R9
	OUT  0x8,R8
	OUT  0x8,R11
	OUT  0x8,R10
	OUT  0x8,R5
	OUT  0x8,R4
	OUT  0x8,R7
	OUT  0x8,R6
	OUT  0x8,R9
	OUT  0x8,R8
	OUT  0x8,R11
	OUT  0x8,R10
	OUT  0x8,R5
	OUT  0x8,R4
	OUT  0x8,R7
	OUT  0x8,R6
	OUT  0x8,R9
	OUT  0x8,R8
	OUT  0x8,R11
	OUT  0x8,R10
	OUT  0x8,R5
	OUT  0x8,R4
	OUT  0x8,R7
	OUT  0x8,R6
	OUT  0x8,R9
	OUT  0x8,R8
	OUT  0x8,R11
	OUT  0x8,R10
	OUT  0x8,R5
	OUT  0x8,R4
	OUT  0x8,R7
	OUT  0x8,R6
	OUT  0x8,R9
	OUT  0x8,R8
	OUT  0x8,R11
	OUT  0x8,R10
	OUT  0x8,R5
	OUT  0x8,R4
	OUT  0x8,R7
	OUT  0x8,R6
	OUT  0x8,R9
	OUT  0x8,R8
	OUT  0x8,R11
	OUT  0x8,R10
	OUT  0x8,R5
	OUT  0x8,R4
	OUT  0x8,R7
	OUT  0x8,R6
	OUT  0x8,R9
	OUT  0x8,R8
	OUT  0x8,R11
	OUT  0x8,R10
	OUT  0x8,R5
	OUT  0x8,R4
	OUT  0x8,R7
	OUT  0x8,R6
	OUT  0x8,R9
	OUT  0x8,R8
	OUT  0x8,R11
	OUT  0x8,R10
	OUT  0x8,R5
	OUT  0x8,R4
	OUT  0x8,R7
	OUT  0x8,R6
	OUT  0x8,R9
	OUT  0x8,R8
	OUT  0x8,R11
	OUT  0x8,R10
	OUT  0x8,R5
	OUT  0x8,R4
	OUT  0x8,R7
	OUT  0x8,R6
	OUT  0x8,R9
	OUT  0x8,R8
	OUT  0x8,R11
	OUT  0x8,R10
	OUT  0x8,R5
	OUT  0x8,R4
	OUT  0x8,R7
	OUT  0x8,R6
	OUT  0x8,R9
	OUT  0x8,R8
	OUT  0x8,R11
	OUT  0x8,R10
	OUT  0x8,R5
	OUT  0x8,R4
	OUT  0x8,R7
	OUT  0x8,R6
	OUT  0x8,R9
	OUT  0x8,R8
	OUT  0x8,R11
	OUT  0x8,R10
	OUT  0x8,R5
	OUT  0x8,R4
	OUT  0x8,R7
	OUT  0x8,R6
	OUT  0x8,R9
	OUT  0x8,R8
	OUT  0x8,R11
	OUT  0x8,R10
	OUT  0x8,R5
	OUT  0x8,R4
	OUT  0x8,R7
	OUT  0x8,R6
	OUT  0x8,R9
	OUT  0x8,R8
	OUT  0x8,R11
	OUT  0x8,R10
	OUT  0x8,R5
	OUT  0x8,R4
	OUT  0x8,R7
	OUT  0x8,R6
	OUT  0x8,R9
	OUT  0x8,R8
	OUT  0x8,R11
	OUT  0x8,R10
	OUT  0x8,R5
	OUT  0x8,R4
	OUT  0x8,R7
	OUT  0x8,R6
	OUT  0x8,R9
	OUT  0x8,R8
	OUT  0x8,R11
	OUT  0x8,R10
	OUT  0x8,R5
	OUT  0x8,R4
	OUT  0x8,R7
	OUT  0x8,R6
	OUT  0x8,R9
	OUT  0x8,R8
	OUT  0x8,R11
	OUT  0x8,R10
	OUT  0x8,R5
	OUT  0x8,R4
	OUT  0x8,R7
	OUT  0x8,R6
	OUT  0x8,R9
	OUT  0x8,R8
	OUT  0x8,R11
	OUT  0x8,R10
	OUT  0x8,R5
	OUT  0x8,R4
	OUT  0x8,R7
	OUT  0x8,R6
	OUT  0x8,R9
	OUT  0x8,R8
	OUT  0x8,R11
	OUT  0x8,R10
	OUT  0x8,R5
	OUT  0x8,R4
	OUT  0x8,R7
	OUT  0x8,R6
	OUT  0x8,R9
	OUT  0x8,R8
	OUT  0x8,R11
	OUT  0x8,R10
	OUT  0x8,R5
	OUT  0x8,R4
	OUT  0x8,R7
	OUT  0x8,R6
	OUT  0x8,R9
	OUT  0x8,R8
	OUT  0x8,R11
	OUT  0x8,R10
	OUT  0x8,R5
	OUT  0x8,R4
	OUT  0x8,R7
	OUT  0x8,R6
	OUT  0x8,R9
	OUT  0x8,R8
	OUT  0x8,R11
	OUT  0x8,R10
	OUT  0x8,R5
	OUT  0x8,R4
	OUT  0x8,R7
	OUT  0x8,R6
	OUT  0x8,R9
	OUT  0x8,R8
	OUT  0x8,R11
	OUT  0x8,R10
	OUT  0x8,R5
	OUT  0x8,R4
	OUT  0x8,R7
	OUT  0x8,R6
	OUT  0x8,R9
	OUT  0x8,R8
	OUT  0x8,R11
	OUT  0x8,R10
	OUT  0x8,R5
	OUT  0x8,R4
	OUT  0x8,R7
	OUT  0x8,R6
	OUT  0x8,R9
	OUT  0x8,R8
	OUT  0x8,R11
	OUT  0x8,R10
	OUT  0x8,R5
	OUT  0x8,R4
	OUT  0x8,R7
	OUT  0x8,R6
	OUT  0x8,R9
	OUT  0x8,R8
	OUT  0x8,R11
	OUT  0x8,R10
	OUT  0x8,R5
	OUT  0x8,R4
	OUT  0x8,R7
	OUT  0x8,R6
	OUT  0x8,R9
	OUT  0x8,R8
	OUT  0x8,R11
	OUT  0x8,R10
	OUT  0x8,R5
	OUT  0x8,R4
	OUT  0x8,R7
	OUT  0x8,R6
	OUT  0x8,R9
	OUT  0x8,R8
	OUT  0x8,R11
	OUT  0x8,R10
	OUT  0x8,R5
	OUT  0x8,R4
	OUT  0x8,R7
	OUT  0x8,R6
	OUT  0x8,R9
	OUT  0x8,R8
	OUT  0x8,R11
	OUT  0x8,R10
	OUT  0x8,R5
	OUT  0x8,R4
	OUT  0x8,R7
	OUT  0x8,R6
	OUT  0x8,R9
	OUT  0x8,R8
	OUT  0x8,R11
	OUT  0x8,R10
	OUT  0x8,R5
	OUT  0x8,R4
	OUT  0x8,R7
	OUT  0x8,R6
	OUT  0x8,R9
	OUT  0x8,R8
	OUT  0x8,R11
	OUT  0x8,R10
	OUT  0x8,R5
	OUT  0x8,R4
	OUT  0x8,R7
	OUT  0x8,R6
	OUT  0x8,R9
	OUT  0x8,R8
	OUT  0x8,R11
	OUT  0x8,R10
	OUT  0x8,R5
	OUT  0x8,R4
	OUT  0x8,R7
	OUT  0x8,R6
	OUT  0x8,R9
	OUT  0x8,R8
	OUT  0x8,R11
	OUT  0x8,R10
	OUT  0x8,R5
	OUT  0x8,R4
	OUT  0x8,R7
	OUT  0x8,R6
	OUT  0x8,R9
	OUT  0x8,R8
	OUT  0x8,R11
	OUT  0x8,R10
	OUT  0x8,R5
	OUT  0x8,R4
	OUT  0x8,R7
	OUT  0x8,R6
	OUT  0x8,R9
	OUT  0x8,R8
	OUT  0x8,R11
	OUT  0x8,R10
	OUT  0x8,R5
	OUT  0x8,R4
	OUT  0x8,R7
	OUT  0x8,R6
	OUT  0x8,R9
	OUT  0x8,R8
	OUT  0x8,R11
	OUT  0x8,R10
	OUT  0x8,R5
	OUT  0x8,R4
	OUT  0x8,R7
	OUT  0x8,R6
	OUT  0x8,R9
	OUT  0x8,R8
	OUT  0x8,R11
	OUT  0x8,R10
	OUT  0x8,R5
	OUT  0x8,R4
	OUT  0x8,R7
	OUT  0x8,R6
	OUT  0x8,R9
	OUT  0x8,R8
	OUT  0x8,R11
	OUT  0x8,R10
	OUT  0x8,R5
	OUT  0x8,R4
	OUT  0x8,R7
	OUT  0x8,R6
	OUT  0x8,R9
	OUT  0x8,R8
	OUT  0x8,R11
	OUT  0x8,R10
	OUT  0x8,R5
	OUT  0x8,R4
	OUT  0x8,R7
	OUT  0x8,R6
	OUT  0x8,R9
	OUT  0x8,R8
	OUT  0x8,R11
	OUT  0x8,R10
	OUT  0x8,R5
	OUT  0x8,R4
	OUT  0x8,R7
	OUT  0x8,R6
	OUT  0x8,R9
	OUT  0x8,R8
	OUT  0x8,R11
	OUT  0x8,R10
	OUT  0x8,R5
	OUT  0x8,R4
	OUT  0x8,R7
	OUT  0x8,R6
	OUT  0x8,R9
	OUT  0x8,R8
	OUT  0x8,R11
	OUT  0x8,R10
	OUT  0x8,R5
	OUT  0x8,R4
	OUT  0x8,R7
	OUT  0x8,R6
	OUT  0x8,R9
	OUT  0x8,R8
	OUT  0x8,R11
	OUT  0x8,R10
	OUT  0x8,R5
	OUT  0x8,R4
	OUT  0x8,R7
	OUT  0x8,R6
	OUT  0x8,R9
	OUT  0x8,R8
	OUT  0x8,R11
	OUT  0x8,R10
	OUT  0x8,R5
	OUT  0x8,R4
	OUT  0x8,R7
	OUT  0x8,R6
	OUT  0x8,R9
	OUT  0x8,R8
	OUT  0x8,R11
	OUT  0x8,R10
	OUT  0x8,R5
	OUT  0x8,R4
	OUT  0x8,R7
	OUT  0x8,R6
	OUT  0x8,R9
	OUT  0x8,R8
	OUT  0x8,R11
	OUT  0x8,R10
	OUT  0x8,R5
	OUT  0x8,R4
	OUT  0x8,R7
	OUT  0x8,R6
	OUT  0x8,R9
	OUT  0x8,R8
	OUT  0x8,R11
	OUT  0x8,R10
	OUT  0x8,R5
	OUT  0x8,R4
	OUT  0x8,R7
	OUT  0x8,R6
	OUT  0x8,R9
	OUT  0x8,R8
	OUT  0x8,R11
	OUT  0x8,R10
	OUT  0x8,R5
	OUT  0x8,R4
	OUT  0x8,R7
	OUT  0x8,R6
	OUT  0x8,R9
	OUT  0x8,R8
	OUT  0x8,R11
	OUT  0x8,R10
	OUT  0x8,R5
	OUT  0x8,R4
	OUT  0x8,R7
	OUT  0x8,R6
	OUT  0x8,R9
	OUT  0x8,R8
	OUT  0x8,R11
	OUT  0x8,R10
	OUT  0x8,R5
	OUT  0x8,R4
	OUT  0x8,R7
	OUT  0x8,R6
	OUT  0x8,R9
	OUT  0x8,R8
	OUT  0x8,R11
	OUT  0x8,R10
	OUT  0x8,R5
	OUT  0x8,R4
	OUT  0x8,R7
	OUT  0x8,R6
	OUT  0x8,R9
	OUT  0x8,R8
	OUT  0x8,R11
	OUT  0x8,R10
	OUT  0x8,R5
	OUT  0x8,R4
	OUT  0x8,R7
	OUT  0x8,R6
	OUT  0x8,R9
	OUT  0x8,R8
	OUT  0x8,R11
	OUT  0x8,R10
	OUT  0x8,R5
	OUT  0x8,R4
	OUT  0x8,R7
	OUT  0x8,R6
	OUT  0x8,R9
	OUT  0x8,R8
	OUT  0x8,R11
	OUT  0x8,R10
	OUT  0x8,R5
	OUT  0x8,R4
	OUT  0x8,R7
	OUT  0x8,R6
	OUT  0x8,R9
	OUT  0x8,R8
	OUT  0x8,R11
	OUT  0x8,R10
	OUT  0x8,R5
	OUT  0x8,R4
	OUT  0x8,R7
	OUT  0x8,R6
	OUT  0x8,R9
	OUT  0x8,R8
	OUT  0x8,R11
	OUT  0x8,R10
	OUT  0x8,R5
	OUT  0x8,R4
	OUT  0x8,R7
	OUT  0x8,R6
	OUT  0x8,R9
	OUT  0x8,R8
	OUT  0x8,R11
	OUT  0x8,R10
	OUT  0x8,R5
	OUT  0x8,R4
	OUT  0x8,R7
	OUT  0x8,R6
	OUT  0x8,R9
	OUT  0x8,R8
	OUT  0x8,R11
	OUT  0x8,R10
	OUT  0x8,R5
	OUT  0x8,R4
	OUT  0x8,R7
	OUT  0x8,R6
	OUT  0x8,R9
	OUT  0x8,R8
	OUT  0x8,R11
	OUT  0x8,R10
	OUT  0x8,R5
	OUT  0x8,R4
	OUT  0x8,R7
	OUT  0x8,R6
	OUT  0x8,R9
	OUT  0x8,R8
	OUT  0x8,R11
	OUT  0x8,R10
	OUT  0x8,R5
	OUT  0x8,R4
	OUT  0x8,R7
	OUT  0x8,R6
	OUT  0x8,R9
	OUT  0x8,R8
	OUT  0x8,R11
	OUT  0x8,R10
	OUT  0x8,R5
	OUT  0x8,R4
	OUT  0x8,R7
	OUT  0x8,R6
	OUT  0x8,R9
	OUT  0x8,R8
	OUT  0x8,R11
	OUT  0x8,R10
	OUT  0x8,R5
	OUT  0x8,R4
	OUT  0x8,R7
	OUT  0x8,R6
	OUT  0x8,R9
	OUT  0x8,R8
	OUT  0x8,R11
	OUT  0x8,R10
	OUT  0x8,R5
	OUT  0x8,R4
	OUT  0x8,R7
	OUT  0x8,R6
	OUT  0x8,R9
	OUT  0x8,R8
	OUT  0x8,R11
	OUT  0x8,R10
	OUT  0x8,R5
	OUT  0x8,R4
	OUT  0x8,R7
	OUT  0x8,R6
	OUT  0x8,R9
	OUT  0x8,R8
	OUT  0x8,R11
	OUT  0x8,R10
	OUT  0x8,R5
	OUT  0x8,R4
	OUT  0x8,R7
	OUT  0x8,R6
	OUT  0x8,R9
	OUT  0x8,R8
	OUT  0x8,R11
	OUT  0x8,R10
	OUT  0x8,R5
	OUT  0x8,R4
	OUT  0x8,R7
	OUT  0x8,R6
	OUT  0x8,R9
	OUT  0x8,R8
	OUT  0x8,R11
	OUT  0x8,R10
	OUT  0x8,R5
	OUT  0x8,R4
	OUT  0x8,R7
	OUT  0x8,R6
	OUT  0x8,R9
	OUT  0x8,R8
	OUT  0x8,R11
	OUT  0x8,R10
	OUT  0x8,R5
	OUT  0x8,R4
	OUT  0x8,R7
	OUT  0x8,R6
	OUT  0x8,R9
	OUT  0x8,R8
	OUT  0x8,R11
	OUT  0x8,R10
	OUT  0x8,R5
	OUT  0x8,R4
	OUT  0x8,R7
	OUT  0x8,R6
	OUT  0x8,R9
	OUT  0x8,R8
	OUT  0x8,R11
	OUT  0x8,R10
	OUT  0x8,R5
	OUT  0x8,R4
	OUT  0x8,R7
	OUT  0x8,R6
	OUT  0x8,R9
	OUT  0x8,R8
	OUT  0x8,R11
	OUT  0x8,R10
	OUT  0x8,R5
	OUT  0x8,R4
	OUT  0x8,R7
	OUT  0x8,R6
	OUT  0x8,R9
	OUT  0x8,R8
	OUT  0x8,R11
	OUT  0x8,R10
	OUT  0x8,R5
	OUT  0x8,R4
	OUT  0x8,R7
	OUT  0x8,R6
	OUT  0x8,R9
	OUT  0x8,R8
	OUT  0x8,R11
	OUT  0x8,R10
	OUT  0x8,R5
	OUT  0x8,R4
	OUT  0x8,R7
	OUT  0x8,R6
	OUT  0x8,R9
	OUT  0x8,R8
	OUT  0x8,R11
	OUT  0x8,R10
	OUT  0x8,R5
	OUT  0x8,R4
	OUT  0x8,R7
	OUT  0x8,R6
	OUT  0x8,R9
	OUT  0x8,R8
	OUT  0x8,R11
	OUT  0x8,R10
	OUT  0x8,R5
	OUT  0x8,R4
	OUT  0x8,R7
	OUT  0x8,R6
	OUT  0x8,R9
	OUT  0x8,R8
	OUT  0x8,R11
	OUT  0x8,R10
	OUT  0x8,R5
	OUT  0x8,R4
	OUT  0x8,R7
	OUT  0x8,R6
	OUT  0x8,R9
	OUT  0x8,R8
	OUT  0x8,R11
	OUT  0x8,R10
	OUT  0x8,R5
	OUT  0x8,R4
	OUT  0x8,R7
	OUT  0x8,R6
	OUT  0x8,R9
	OUT  0x8,R8
	OUT  0x8,R11
	OUT  0x8,R10
	OUT  0x8,R5
	OUT  0x8,R4
	OUT  0x8,R7
	OUT  0x8,R6
	OUT  0x8,R9
	OUT  0x8,R8
	OUT  0x8,R11
	OUT  0x8,R10
	OUT  0x8,R5
	OUT  0x8,R4
	OUT  0x8,R7
	OUT  0x8,R6
	OUT  0x8,R9
	OUT  0x8,R8
	OUT  0x8,R11
	OUT  0x8,R10
	OUT  0x8,R5
	OUT  0x8,R4
	OUT  0x8,R7
	OUT  0x8,R6
	OUT  0x8,R9
	OUT  0x8,R8
	OUT  0x8,R11
	OUT  0x8,R10
	OUT  0x8,R5
	OUT  0x8,R4
	OUT  0x8,R7
	OUT  0x8,R6
	OUT  0x8,R9
	OUT  0x8,R8
	OUT  0x8,R11
	OUT  0x8,R10
	OUT  0x8,R5
	OUT  0x8,R4
	OUT  0x8,R7
	OUT  0x8,R6
	OUT  0x8,R9
	OUT  0x8,R8
	OUT  0x8,R11
	OUT  0x8,R10
	OUT  0x8,R5
	OUT  0x8,R4
	OUT  0x8,R7
	OUT  0x8,R6
	OUT  0x8,R9
	OUT  0x8,R8
	OUT  0x8,R11
	OUT  0x8,R10
	OUT  0x8,R5
	OUT  0x8,R4
	OUT  0x8,R7
	OUT  0x8,R6
	OUT  0x8,R9
	OUT  0x8,R8
	OUT  0x8,R11
	OUT  0x8,R10
	OUT  0x8,R5
	OUT  0x8,R4
	OUT  0x8,R7
	OUT  0x8,R6
	OUT  0x8,R9
	OUT  0x8,R8
	OUT  0x8,R11
	OUT  0x8,R10
	OUT  0x8,R5
	OUT  0x8,R4
	OUT  0x8,R7
	OUT  0x8,R6
	OUT  0x8,R9
	OUT  0x8,R8
	OUT  0x8,R11
	OUT  0x8,R10
	OUT  0x8,R5
	OUT  0x8,R4
	OUT  0x8,R7
	OUT  0x8,R6
	OUT  0x8,R9
	OUT  0x8,R8
	OUT  0x8,R11
	OUT  0x8,R10
	OUT  0x8,R5
	OUT  0x8,R4
	OUT  0x8,R7
	OUT  0x8,R6
	OUT  0x8,R9
	OUT  0x8,R8
	OUT  0x8,R11
	OUT  0x8,R10
	OUT  0x8,R5
	OUT  0x8,R4
	OUT  0x8,R7
	OUT  0x8,R6
	OUT  0x8,R9
	OUT  0x8,R8
	OUT  0x8,R11
	OUT  0x8,R10
	OUT  0x8,R5
	OUT  0x8,R4
	OUT  0x8,R7
	OUT  0x8,R6
	OUT  0x8,R9
	OUT  0x8,R8
	OUT  0x8,R11
	OUT  0x8,R10
; 0000 021F         pixel1000
	OUT  0x8,R5
	OUT  0x8,R4
	OUT  0x8,R7
	OUT  0x8,R6
	OUT  0x8,R9
	OUT  0x8,R8
	OUT  0x8,R11
	OUT  0x8,R10
	OUT  0x8,R5
	OUT  0x8,R4
	OUT  0x8,R7
	OUT  0x8,R6
	OUT  0x8,R9
	OUT  0x8,R8
	OUT  0x8,R11
	OUT  0x8,R10
	OUT  0x8,R5
	OUT  0x8,R4
	OUT  0x8,R7
	OUT  0x8,R6
	OUT  0x8,R9
	OUT  0x8,R8
	OUT  0x8,R11
	OUT  0x8,R10
	OUT  0x8,R5
	OUT  0x8,R4
	OUT  0x8,R7
	OUT  0x8,R6
	OUT  0x8,R9
	OUT  0x8,R8
	OUT  0x8,R11
	OUT  0x8,R10
	OUT  0x8,R5
	OUT  0x8,R4
	OUT  0x8,R7
	OUT  0x8,R6
	OUT  0x8,R9
	OUT  0x8,R8
	OUT  0x8,R11
	OUT  0x8,R10
	OUT  0x8,R5
	OUT  0x8,R4
	OUT  0x8,R7
	OUT  0x8,R6
	OUT  0x8,R9
	OUT  0x8,R8
	OUT  0x8,R11
	OUT  0x8,R10
	OUT  0x8,R5
	OUT  0x8,R4
	OUT  0x8,R7
	OUT  0x8,R6
	OUT  0x8,R9
	OUT  0x8,R8
	OUT  0x8,R11
	OUT  0x8,R10
	OUT  0x8,R5
	OUT  0x8,R4
	OUT  0x8,R7
	OUT  0x8,R6
	OUT  0x8,R9
	OUT  0x8,R8
	OUT  0x8,R11
	OUT  0x8,R10
	OUT  0x8,R5
	OUT  0x8,R4
	OUT  0x8,R7
	OUT  0x8,R6
	OUT  0x8,R9
	OUT  0x8,R8
	OUT  0x8,R11
	OUT  0x8,R10
	OUT  0x8,R5
	OUT  0x8,R4
	OUT  0x8,R7
	OUT  0x8,R6
	OUT  0x8,R9
	OUT  0x8,R8
	OUT  0x8,R11
	OUT  0x8,R10
	OUT  0x8,R5
	OUT  0x8,R4
	OUT  0x8,R7
	OUT  0x8,R6
	OUT  0x8,R9
	OUT  0x8,R8
	OUT  0x8,R11
	OUT  0x8,R10
	OUT  0x8,R5
	OUT  0x8,R4
	OUT  0x8,R7
	OUT  0x8,R6
	OUT  0x8,R9
	OUT  0x8,R8
	OUT  0x8,R11
	OUT  0x8,R10
	OUT  0x8,R5
	OUT  0x8,R4
	OUT  0x8,R7
	OUT  0x8,R6
	OUT  0x8,R9
	OUT  0x8,R8
	OUT  0x8,R11
	OUT  0x8,R10
	OUT  0x8,R5
	OUT  0x8,R4
	OUT  0x8,R7
	OUT  0x8,R6
	OUT  0x8,R9
	OUT  0x8,R8
	OUT  0x8,R11
	OUT  0x8,R10
	OUT  0x8,R5
	OUT  0x8,R4
	OUT  0x8,R7
	OUT  0x8,R6
	OUT  0x8,R9
	OUT  0x8,R8
	OUT  0x8,R11
	OUT  0x8,R10
	OUT  0x8,R5
	OUT  0x8,R4
	OUT  0x8,R7
	OUT  0x8,R6
	OUT  0x8,R9
	OUT  0x8,R8
	OUT  0x8,R11
	OUT  0x8,R10
	OUT  0x8,R5
	OUT  0x8,R4
	OUT  0x8,R7
	OUT  0x8,R6
	OUT  0x8,R9
	OUT  0x8,R8
	OUT  0x8,R11
	OUT  0x8,R10
	OUT  0x8,R5
	OUT  0x8,R4
	OUT  0x8,R7
	OUT  0x8,R6
	OUT  0x8,R9
	OUT  0x8,R8
	OUT  0x8,R11
	OUT  0x8,R10
	OUT  0x8,R5
	OUT  0x8,R4
	OUT  0x8,R7
	OUT  0x8,R6
	OUT  0x8,R9
	OUT  0x8,R8
	OUT  0x8,R11
	OUT  0x8,R10
	OUT  0x8,R5
	OUT  0x8,R4
	OUT  0x8,R7
	OUT  0x8,R6
	OUT  0x8,R9
	OUT  0x8,R8
	OUT  0x8,R11
	OUT  0x8,R10
	OUT  0x8,R5
	OUT  0x8,R4
	OUT  0x8,R7
	OUT  0x8,R6
	OUT  0x8,R9
	OUT  0x8,R8
	OUT  0x8,R11
	OUT  0x8,R10
	OUT  0x8,R5
	OUT  0x8,R4
	OUT  0x8,R7
	OUT  0x8,R6
	OUT  0x8,R9
	OUT  0x8,R8
	OUT  0x8,R11
	OUT  0x8,R10
	OUT  0x8,R5
	OUT  0x8,R4
	OUT  0x8,R7
	OUT  0x8,R6
	OUT  0x8,R9
	OUT  0x8,R8
	OUT  0x8,R11
	OUT  0x8,R10
	OUT  0x8,R5
	OUT  0x8,R4
	OUT  0x8,R7
	OUT  0x8,R6
	OUT  0x8,R9
	OUT  0x8,R8
	OUT  0x8,R11
	OUT  0x8,R10
	OUT  0x8,R5
	OUT  0x8,R4
	OUT  0x8,R7
	OUT  0x8,R6
	OUT  0x8,R9
	OUT  0x8,R8
	OUT  0x8,R11
	OUT  0x8,R10
	OUT  0x8,R5
	OUT  0x8,R4
	OUT  0x8,R7
	OUT  0x8,R6
	OUT  0x8,R9
	OUT  0x8,R8
	OUT  0x8,R11
	OUT  0x8,R10
	OUT  0x8,R5
	OUT  0x8,R4
	OUT  0x8,R7
	OUT  0x8,R6
	OUT  0x8,R9
	OUT  0x8,R8
	OUT  0x8,R11
	OUT  0x8,R10
	OUT  0x8,R5
	OUT  0x8,R4
	OUT  0x8,R7
	OUT  0x8,R6
	OUT  0x8,R9
	OUT  0x8,R8
	OUT  0x8,R11
	OUT  0x8,R10
	OUT  0x8,R5
	OUT  0x8,R4
	OUT  0x8,R7
	OUT  0x8,R6
	OUT  0x8,R9
	OUT  0x8,R8
	OUT  0x8,R11
	OUT  0x8,R10
	OUT  0x8,R5
	OUT  0x8,R4
	OUT  0x8,R7
	OUT  0x8,R6
	OUT  0x8,R9
	OUT  0x8,R8
	OUT  0x8,R11
	OUT  0x8,R10
	OUT  0x8,R5
	OUT  0x8,R4
	OUT  0x8,R7
	OUT  0x8,R6
	OUT  0x8,R9
	OUT  0x8,R8
	OUT  0x8,R11
	OUT  0x8,R10
	OUT  0x8,R5
	OUT  0x8,R4
	OUT  0x8,R7
	OUT  0x8,R6
	OUT  0x8,R9
	OUT  0x8,R8
	OUT  0x8,R11
	OUT  0x8,R10
	OUT  0x8,R5
	OUT  0x8,R4
	OUT  0x8,R7
	OUT  0x8,R6
	OUT  0x8,R9
	OUT  0x8,R8
	OUT  0x8,R11
	OUT  0x8,R10
	OUT  0x8,R5
	OUT  0x8,R4
	OUT  0x8,R7
	OUT  0x8,R6
	OUT  0x8,R9
	OUT  0x8,R8
	OUT  0x8,R11
	OUT  0x8,R10
	OUT  0x8,R5
	OUT  0x8,R4
	OUT  0x8,R7
	OUT  0x8,R6
	OUT  0x8,R9
	OUT  0x8,R8
	OUT  0x8,R11
	OUT  0x8,R10
	OUT  0x8,R5
	OUT  0x8,R4
	OUT  0x8,R7
	OUT  0x8,R6
	OUT  0x8,R9
	OUT  0x8,R8
	OUT  0x8,R11
	OUT  0x8,R10
	OUT  0x8,R5
	OUT  0x8,R4
	OUT  0x8,R7
	OUT  0x8,R6
	OUT  0x8,R9
	OUT  0x8,R8
	OUT  0x8,R11
	OUT  0x8,R10
	OUT  0x8,R5
	OUT  0x8,R4
	OUT  0x8,R7
	OUT  0x8,R6
	OUT  0x8,R9
	OUT  0x8,R8
	OUT  0x8,R11
	OUT  0x8,R10
	OUT  0x8,R5
	OUT  0x8,R4
	OUT  0x8,R7
	OUT  0x8,R6
	OUT  0x8,R9
	OUT  0x8,R8
	OUT  0x8,R11
	OUT  0x8,R10
	OUT  0x8,R5
	OUT  0x8,R4
	OUT  0x8,R7
	OUT  0x8,R6
	OUT  0x8,R9
	OUT  0x8,R8
	OUT  0x8,R11
	OUT  0x8,R10
	OUT  0x8,R5
	OUT  0x8,R4
	OUT  0x8,R7
	OUT  0x8,R6
	OUT  0x8,R9
	OUT  0x8,R8
	OUT  0x8,R11
	OUT  0x8,R10
	OUT  0x8,R5
	OUT  0x8,R4
	OUT  0x8,R7
	OUT  0x8,R6
	OUT  0x8,R9
	OUT  0x8,R8
	OUT  0x8,R11
	OUT  0x8,R10
	OUT  0x8,R5
	OUT  0x8,R4
	OUT  0x8,R7
	OUT  0x8,R6
	OUT  0x8,R9
	OUT  0x8,R8
	OUT  0x8,R11
	OUT  0x8,R10
	OUT  0x8,R5
	OUT  0x8,R4
	OUT  0x8,R7
	OUT  0x8,R6
	OUT  0x8,R9
	OUT  0x8,R8
	OUT  0x8,R11
	OUT  0x8,R10
	OUT  0x8,R5
	OUT  0x8,R4
	OUT  0x8,R7
	OUT  0x8,R6
	OUT  0x8,R9
	OUT  0x8,R8
	OUT  0x8,R11
	OUT  0x8,R10
	OUT  0x8,R5
	OUT  0x8,R4
	OUT  0x8,R7
	OUT  0x8,R6
	OUT  0x8,R9
	OUT  0x8,R8
	OUT  0x8,R11
	OUT  0x8,R10
	OUT  0x8,R5
	OUT  0x8,R4
	OUT  0x8,R7
	OUT  0x8,R6
	OUT  0x8,R9
	OUT  0x8,R8
	OUT  0x8,R11
	OUT  0x8,R10
	OUT  0x8,R5
	OUT  0x8,R4
	OUT  0x8,R7
	OUT  0x8,R6
	OUT  0x8,R9
	OUT  0x8,R8
	OUT  0x8,R11
	OUT  0x8,R10
	OUT  0x8,R5
	OUT  0x8,R4
	OUT  0x8,R7
	OUT  0x8,R6
	OUT  0x8,R9
	OUT  0x8,R8
	OUT  0x8,R11
	OUT  0x8,R10
	OUT  0x8,R5
	OUT  0x8,R4
	OUT  0x8,R7
	OUT  0x8,R6
	OUT  0x8,R9
	OUT  0x8,R8
	OUT  0x8,R11
	OUT  0x8,R10
	OUT  0x8,R5
	OUT  0x8,R4
	OUT  0x8,R7
	OUT  0x8,R6
	OUT  0x8,R9
	OUT  0x8,R8
	OUT  0x8,R11
	OUT  0x8,R10
	OUT  0x8,R5
	OUT  0x8,R4
	OUT  0x8,R7
	OUT  0x8,R6
	OUT  0x8,R9
	OUT  0x8,R8
	OUT  0x8,R11
	OUT  0x8,R10
	OUT  0x8,R5
	OUT  0x8,R4
	OUT  0x8,R7
	OUT  0x8,R6
	OUT  0x8,R9
	OUT  0x8,R8
	OUT  0x8,R11
	OUT  0x8,R10
	OUT  0x8,R5
	OUT  0x8,R4
	OUT  0x8,R7
	OUT  0x8,R6
	OUT  0x8,R9
	OUT  0x8,R8
	OUT  0x8,R11
	OUT  0x8,R10
	OUT  0x8,R5
	OUT  0x8,R4
	OUT  0x8,R7
	OUT  0x8,R6
	OUT  0x8,R9
	OUT  0x8,R8
	OUT  0x8,R11
	OUT  0x8,R10
	OUT  0x8,R5
	OUT  0x8,R4
	OUT  0x8,R7
	OUT  0x8,R6
	OUT  0x8,R9
	OUT  0x8,R8
	OUT  0x8,R11
	OUT  0x8,R10
	OUT  0x8,R5
	OUT  0x8,R4
	OUT  0x8,R7
	OUT  0x8,R6
	OUT  0x8,R9
	OUT  0x8,R8
	OUT  0x8,R11
	OUT  0x8,R10
	OUT  0x8,R5
	OUT  0x8,R4
	OUT  0x8,R7
	OUT  0x8,R6
	OUT  0x8,R9
	OUT  0x8,R8
	OUT  0x8,R11
	OUT  0x8,R10
	OUT  0x8,R5
	OUT  0x8,R4
	OUT  0x8,R7
	OUT  0x8,R6
	OUT  0x8,R9
	OUT  0x8,R8
	OUT  0x8,R11
	OUT  0x8,R10
	OUT  0x8,R5
	OUT  0x8,R4
	OUT  0x8,R7
	OUT  0x8,R6
	OUT  0x8,R9
	OUT  0x8,R8
	OUT  0x8,R11
	OUT  0x8,R10
	OUT  0x8,R5
	OUT  0x8,R4
	OUT  0x8,R7
	OUT  0x8,R6
	OUT  0x8,R9
	OUT  0x8,R8
	OUT  0x8,R11
	OUT  0x8,R10
	OUT  0x8,R5
	OUT  0x8,R4
	OUT  0x8,R7
	OUT  0x8,R6
	OUT  0x8,R9
	OUT  0x8,R8
	OUT  0x8,R11
	OUT  0x8,R10
	OUT  0x8,R5
	OUT  0x8,R4
	OUT  0x8,R7
	OUT  0x8,R6
	OUT  0x8,R9
	OUT  0x8,R8
	OUT  0x8,R11
	OUT  0x8,R10
	OUT  0x8,R5
	OUT  0x8,R4
	OUT  0x8,R7
	OUT  0x8,R6
	OUT  0x8,R9
	OUT  0x8,R8
	OUT  0x8,R11
	OUT  0x8,R10
	OUT  0x8,R5
	OUT  0x8,R4
	OUT  0x8,R7
	OUT  0x8,R6
	OUT  0x8,R9
	OUT  0x8,R8
	OUT  0x8,R11
	OUT  0x8,R10
	OUT  0x8,R5
	OUT  0x8,R4
	OUT  0x8,R7
	OUT  0x8,R6
	OUT  0x8,R9
	OUT  0x8,R8
	OUT  0x8,R11
	OUT  0x8,R10
	OUT  0x8,R5
	OUT  0x8,R4
	OUT  0x8,R7
	OUT  0x8,R6
	OUT  0x8,R9
	OUT  0x8,R8
	OUT  0x8,R11
	OUT  0x8,R10
	OUT  0x8,R5
	OUT  0x8,R4
	OUT  0x8,R7
	OUT  0x8,R6
	OUT  0x8,R9
	OUT  0x8,R8
	OUT  0x8,R11
	OUT  0x8,R10
	OUT  0x8,R5
	OUT  0x8,R4
	OUT  0x8,R7
	OUT  0x8,R6
	OUT  0x8,R9
	OUT  0x8,R8
	OUT  0x8,R11
	OUT  0x8,R10
	OUT  0x8,R5
	OUT  0x8,R4
	OUT  0x8,R7
	OUT  0x8,R6
	OUT  0x8,R9
	OUT  0x8,R8
	OUT  0x8,R11
	OUT  0x8,R10
	OUT  0x8,R5
	OUT  0x8,R4
	OUT  0x8,R7
	OUT  0x8,R6
	OUT  0x8,R9
	OUT  0x8,R8
	OUT  0x8,R11
	OUT  0x8,R10
	OUT  0x8,R5
	OUT  0x8,R4
	OUT  0x8,R7
	OUT  0x8,R6
	OUT  0x8,R9
	OUT  0x8,R8
	OUT  0x8,R11
	OUT  0x8,R10
	OUT  0x8,R5
	OUT  0x8,R4
	OUT  0x8,R7
	OUT  0x8,R6
	OUT  0x8,R9
	OUT  0x8,R8
	OUT  0x8,R11
	OUT  0x8,R10
	OUT  0x8,R5
	OUT  0x8,R4
	OUT  0x8,R7
	OUT  0x8,R6
	OUT  0x8,R9
	OUT  0x8,R8
	OUT  0x8,R11
	OUT  0x8,R10
	OUT  0x8,R5
	OUT  0x8,R4
	OUT  0x8,R7
	OUT  0x8,R6
	OUT  0x8,R9
	OUT  0x8,R8
	OUT  0x8,R11
	OUT  0x8,R10
	OUT  0x8,R5
	OUT  0x8,R4
	OUT  0x8,R7
	OUT  0x8,R6
	OUT  0x8,R9
	OUT  0x8,R8
	OUT  0x8,R11
	OUT  0x8,R10
	OUT  0x8,R5
	OUT  0x8,R4
	OUT  0x8,R7
	OUT  0x8,R6
	OUT  0x8,R9
	OUT  0x8,R8
	OUT  0x8,R11
	OUT  0x8,R10
	OUT  0x8,R5
	OUT  0x8,R4
	OUT  0x8,R7
	OUT  0x8,R6
	OUT  0x8,R9
	OUT  0x8,R8
	OUT  0x8,R11
	OUT  0x8,R10
	OUT  0x8,R5
	OUT  0x8,R4
	OUT  0x8,R7
	OUT  0x8,R6
	OUT  0x8,R9
	OUT  0x8,R8
	OUT  0x8,R11
	OUT  0x8,R10
	OUT  0x8,R5
	OUT  0x8,R4
	OUT  0x8,R7
	OUT  0x8,R6
	OUT  0x8,R9
	OUT  0x8,R8
	OUT  0x8,R11
	OUT  0x8,R10
	OUT  0x8,R5
	OUT  0x8,R4
	OUT  0x8,R7
	OUT  0x8,R6
	OUT  0x8,R9
	OUT  0x8,R8
	OUT  0x8,R11
	OUT  0x8,R10
	OUT  0x8,R5
	OUT  0x8,R4
	OUT  0x8,R7
	OUT  0x8,R6
	OUT  0x8,R9
	OUT  0x8,R8
	OUT  0x8,R11
	OUT  0x8,R10
	OUT  0x8,R5
	OUT  0x8,R4
	OUT  0x8,R7
	OUT  0x8,R6
	OUT  0x8,R9
	OUT  0x8,R8
	OUT  0x8,R11
	OUT  0x8,R10
	OUT  0x8,R5
	OUT  0x8,R4
	OUT  0x8,R7
	OUT  0x8,R6
	OUT  0x8,R9
	OUT  0x8,R8
	OUT  0x8,R11
	OUT  0x8,R10
	OUT  0x8,R5
	OUT  0x8,R4
	OUT  0x8,R7
	OUT  0x8,R6
	OUT  0x8,R9
	OUT  0x8,R8
	OUT  0x8,R11
	OUT  0x8,R10
	OUT  0x8,R5
	OUT  0x8,R4
	OUT  0x8,R7
	OUT  0x8,R6
	OUT  0x8,R9
	OUT  0x8,R8
	OUT  0x8,R11
	OUT  0x8,R10
	OUT  0x8,R5
	OUT  0x8,R4
	OUT  0x8,R7
	OUT  0x8,R6
	OUT  0x8,R9
	OUT  0x8,R8
	OUT  0x8,R11
	OUT  0x8,R10
	OUT  0x8,R5
	OUT  0x8,R4
	OUT  0x8,R7
	OUT  0x8,R6
	OUT  0x8,R9
	OUT  0x8,R8
	OUT  0x8,R11
	OUT  0x8,R10
	OUT  0x8,R5
	OUT  0x8,R4
	OUT  0x8,R7
	OUT  0x8,R6
	OUT  0x8,R9
	OUT  0x8,R8
	OUT  0x8,R11
	OUT  0x8,R10
	OUT  0x8,R5
	OUT  0x8,R4
	OUT  0x8,R7
	OUT  0x8,R6
	OUT  0x8,R9
	OUT  0x8,R8
	OUT  0x8,R11
	OUT  0x8,R10
	OUT  0x8,R5
	OUT  0x8,R4
	OUT  0x8,R7
	OUT  0x8,R6
	OUT  0x8,R9
	OUT  0x8,R8
	OUT  0x8,R11
	OUT  0x8,R10
	OUT  0x8,R5
	OUT  0x8,R4
	OUT  0x8,R7
	OUT  0x8,R6
	OUT  0x8,R9
	OUT  0x8,R8
	OUT  0x8,R11
	OUT  0x8,R10
	OUT  0x8,R5
	OUT  0x8,R4
	OUT  0x8,R7
	OUT  0x8,R6
	OUT  0x8,R9
	OUT  0x8,R8
	OUT  0x8,R11
	OUT  0x8,R10
	OUT  0x8,R5
	OUT  0x8,R4
	OUT  0x8,R7
	OUT  0x8,R6
	OUT  0x8,R9
	OUT  0x8,R8
	OUT  0x8,R11
	OUT  0x8,R10
	OUT  0x8,R5
	OUT  0x8,R4
	OUT  0x8,R7
	OUT  0x8,R6
	OUT  0x8,R9
	OUT  0x8,R8
	OUT  0x8,R11
	OUT  0x8,R10
	OUT  0x8,R5
	OUT  0x8,R4
	OUT  0x8,R7
	OUT  0x8,R6
	OUT  0x8,R9
	OUT  0x8,R8
	OUT  0x8,R11
	OUT  0x8,R10
	OUT  0x8,R5
	OUT  0x8,R4
	OUT  0x8,R7
	OUT  0x8,R6
	OUT  0x8,R9
	OUT  0x8,R8
	OUT  0x8,R11
	OUT  0x8,R10
	OUT  0x8,R5
	OUT  0x8,R4
	OUT  0x8,R7
	OUT  0x8,R6
	OUT  0x8,R9
	OUT  0x8,R8
	OUT  0x8,R11
	OUT  0x8,R10
	OUT  0x8,R5
	OUT  0x8,R4
	OUT  0x8,R7
	OUT  0x8,R6
	OUT  0x8,R9
	OUT  0x8,R8
	OUT  0x8,R11
	OUT  0x8,R10
	OUT  0x8,R5
	OUT  0x8,R4
	OUT  0x8,R7
	OUT  0x8,R6
	OUT  0x8,R9
	OUT  0x8,R8
	OUT  0x8,R11
	OUT  0x8,R10
	OUT  0x8,R5
	OUT  0x8,R4
	OUT  0x8,R7
	OUT  0x8,R6
	OUT  0x8,R9
	OUT  0x8,R8
	OUT  0x8,R11
	OUT  0x8,R10
	OUT  0x8,R5
	OUT  0x8,R4
	OUT  0x8,R7
	OUT  0x8,R6
	OUT  0x8,R9
	OUT  0x8,R8
	OUT  0x8,R11
	OUT  0x8,R10
	OUT  0x8,R5
	OUT  0x8,R4
	OUT  0x8,R7
	OUT  0x8,R6
	OUT  0x8,R9
	OUT  0x8,R8
	OUT  0x8,R11
	OUT  0x8,R10
	OUT  0x8,R5
	OUT  0x8,R4
	OUT  0x8,R7
	OUT  0x8,R6
	OUT  0x8,R9
	OUT  0x8,R8
	OUT  0x8,R11
	OUT  0x8,R10
	OUT  0x8,R5
	OUT  0x8,R4
	OUT  0x8,R7
	OUT  0x8,R6
	OUT  0x8,R9
	OUT  0x8,R8
	OUT  0x8,R11
	OUT  0x8,R10
	OUT  0x8,R5
	OUT  0x8,R4
	OUT  0x8,R7
	OUT  0x8,R6
	OUT  0x8,R9
	OUT  0x8,R8
	OUT  0x8,R11
	OUT  0x8,R10
	OUT  0x8,R5
	OUT  0x8,R4
	OUT  0x8,R7
	OUT  0x8,R6
	OUT  0x8,R9
	OUT  0x8,R8
	OUT  0x8,R11
	OUT  0x8,R10
	OUT  0x8,R5
	OUT  0x8,R4
	OUT  0x8,R7
	OUT  0x8,R6
	OUT  0x8,R9
	OUT  0x8,R8
	OUT  0x8,R11
	OUT  0x8,R10
	OUT  0x8,R5
	OUT  0x8,R4
	OUT  0x8,R7
	OUT  0x8,R6
	OUT  0x8,R9
	OUT  0x8,R8
	OUT  0x8,R11
	OUT  0x8,R10
	OUT  0x8,R5
	OUT  0x8,R4
	OUT  0x8,R7
	OUT  0x8,R6
	OUT  0x8,R9
	OUT  0x8,R8
	OUT  0x8,R11
	OUT  0x8,R10
	OUT  0x8,R5
	OUT  0x8,R4
	OUT  0x8,R7
	OUT  0x8,R6
	OUT  0x8,R9
	OUT  0x8,R8
	OUT  0x8,R11
	OUT  0x8,R10
	OUT  0x8,R5
	OUT  0x8,R4
	OUT  0x8,R7
	OUT  0x8,R6
	OUT  0x8,R9
	OUT  0x8,R8
	OUT  0x8,R11
	OUT  0x8,R10
	OUT  0x8,R5
	OUT  0x8,R4
	OUT  0x8,R7
	OUT  0x8,R6
	OUT  0x8,R9
	OUT  0x8,R8
	OUT  0x8,R11
	OUT  0x8,R10
	OUT  0x8,R5
	OUT  0x8,R4
	OUT  0x8,R7
	OUT  0x8,R6
	OUT  0x8,R9
	OUT  0x8,R8
	OUT  0x8,R11
	OUT  0x8,R10
	OUT  0x8,R5
	OUT  0x8,R4
	OUT  0x8,R7
	OUT  0x8,R6
	OUT  0x8,R9
	OUT  0x8,R8
	OUT  0x8,R11
	OUT  0x8,R10
	OUT  0x8,R5
	OUT  0x8,R4
	OUT  0x8,R7
	OUT  0x8,R6
	OUT  0x8,R9
	OUT  0x8,R8
	OUT  0x8,R11
	OUT  0x8,R10
	OUT  0x8,R5
	OUT  0x8,R4
	OUT  0x8,R7
	OUT  0x8,R6
	OUT  0x8,R9
	OUT  0x8,R8
	OUT  0x8,R11
	OUT  0x8,R10
	OUT  0x8,R5
	OUT  0x8,R4
	OUT  0x8,R7
	OUT  0x8,R6
	OUT  0x8,R9
	OUT  0x8,R8
	OUT  0x8,R11
	OUT  0x8,R10
	OUT  0x8,R5
	OUT  0x8,R4
	OUT  0x8,R7
	OUT  0x8,R6
	OUT  0x8,R9
	OUT  0x8,R8
	OUT  0x8,R11
	OUT  0x8,R10
	OUT  0x8,R5
	OUT  0x8,R4
	OUT  0x8,R7
	OUT  0x8,R6
	OUT  0x8,R9
	OUT  0x8,R8
	OUT  0x8,R11
	OUT  0x8,R10
	OUT  0x8,R5
	OUT  0x8,R4
	OUT  0x8,R7
	OUT  0x8,R6
	OUT  0x8,R9
	OUT  0x8,R8
	OUT  0x8,R11
	OUT  0x8,R10
	OUT  0x8,R5
	OUT  0x8,R4
	OUT  0x8,R7
	OUT  0x8,R6
	OUT  0x8,R9
	OUT  0x8,R8
	OUT  0x8,R11
	OUT  0x8,R10
	OUT  0x8,R5
	OUT  0x8,R4
	OUT  0x8,R7
	OUT  0x8,R6
	OUT  0x8,R9
	OUT  0x8,R8
	OUT  0x8,R11
	OUT  0x8,R10
	OUT  0x8,R5
	OUT  0x8,R4
	OUT  0x8,R7
	OUT  0x8,R6
	OUT  0x8,R9
	OUT  0x8,R8
	OUT  0x8,R11
	OUT  0x8,R10
	OUT  0x8,R5
	OUT  0x8,R4
	OUT  0x8,R7
	OUT  0x8,R6
	OUT  0x8,R9
	OUT  0x8,R8
	OUT  0x8,R11
	OUT  0x8,R10
	OUT  0x8,R5
	OUT  0x8,R4
	OUT  0x8,R7
	OUT  0x8,R6
	OUT  0x8,R9
	OUT  0x8,R8
	OUT  0x8,R11
	OUT  0x8,R10
	OUT  0x8,R5
	OUT  0x8,R4
	OUT  0x8,R7
	OUT  0x8,R6
	OUT  0x8,R9
	OUT  0x8,R8
	OUT  0x8,R11
	OUT  0x8,R10
	OUT  0x8,R5
	OUT  0x8,R4
	OUT  0x8,R7
	OUT  0x8,R6
	OUT  0x8,R9
	OUT  0x8,R8
	OUT  0x8,R11
	OUT  0x8,R10
	OUT  0x8,R5
	OUT  0x8,R4
	OUT  0x8,R7
	OUT  0x8,R6
	OUT  0x8,R9
	OUT  0x8,R8
	OUT  0x8,R11
	OUT  0x8,R10
	OUT  0x8,R5
	OUT  0x8,R4
	OUT  0x8,R7
	OUT  0x8,R6
	OUT  0x8,R9
	OUT  0x8,R8
	OUT  0x8,R11
	OUT  0x8,R10
	OUT  0x8,R5
	OUT  0x8,R4
	OUT  0x8,R7
	OUT  0x8,R6
	OUT  0x8,R9
	OUT  0x8,R8
	OUT  0x8,R11
	OUT  0x8,R10
	OUT  0x8,R5
	OUT  0x8,R4
	OUT  0x8,R7
	OUT  0x8,R6
	OUT  0x8,R9
	OUT  0x8,R8
	OUT  0x8,R11
	OUT  0x8,R10
	OUT  0x8,R5
	OUT  0x8,R4
	OUT  0x8,R7
	OUT  0x8,R6
	OUT  0x8,R9
	OUT  0x8,R8
	OUT  0x8,R11
	OUT  0x8,R10
	OUT  0x8,R5
	OUT  0x8,R4
	OUT  0x8,R7
	OUT  0x8,R6
	OUT  0x8,R9
	OUT  0x8,R8
	OUT  0x8,R11
	OUT  0x8,R10
	OUT  0x8,R5
	OUT  0x8,R4
	OUT  0x8,R7
	OUT  0x8,R6
	OUT  0x8,R9
	OUT  0x8,R8
	OUT  0x8,R11
	OUT  0x8,R10
	OUT  0x8,R5
	OUT  0x8,R4
	OUT  0x8,R7
	OUT  0x8,R6
	OUT  0x8,R9
	OUT  0x8,R8
	OUT  0x8,R11
	OUT  0x8,R10
	OUT  0x8,R5
	OUT  0x8,R4
	OUT  0x8,R7
	OUT  0x8,R6
	OUT  0x8,R9
	OUT  0x8,R8
	OUT  0x8,R11
	OUT  0x8,R10
	OUT  0x8,R5
	OUT  0x8,R4
	OUT  0x8,R7
	OUT  0x8,R6
	OUT  0x8,R9
	OUT  0x8,R8
	OUT  0x8,R11
	OUT  0x8,R10
	OUT  0x8,R5
	OUT  0x8,R4
	OUT  0x8,R7
	OUT  0x8,R6
	OUT  0x8,R9
	OUT  0x8,R8
	OUT  0x8,R11
	OUT  0x8,R10
	OUT  0x8,R5
	OUT  0x8,R4
	OUT  0x8,R7
	OUT  0x8,R6
	OUT  0x8,R9
	OUT  0x8,R8
	OUT  0x8,R11
	OUT  0x8,R10
	OUT  0x8,R5
	OUT  0x8,R4
	OUT  0x8,R7
	OUT  0x8,R6
	OUT  0x8,R9
	OUT  0x8,R8
	OUT  0x8,R11
	OUT  0x8,R10
	OUT  0x8,R5
	OUT  0x8,R4
	OUT  0x8,R7
	OUT  0x8,R6
	OUT  0x8,R9
	OUT  0x8,R8
	OUT  0x8,R11
	OUT  0x8,R10
	OUT  0x8,R5
	OUT  0x8,R4
	OUT  0x8,R7
	OUT  0x8,R6
	OUT  0x8,R9
	OUT  0x8,R8
	OUT  0x8,R11
	OUT  0x8,R10
	OUT  0x8,R5
	OUT  0x8,R4
	OUT  0x8,R7
	OUT  0x8,R6
	OUT  0x8,R9
	OUT  0x8,R8
	OUT  0x8,R11
	OUT  0x8,R10
	OUT  0x8,R5
	OUT  0x8,R4
	OUT  0x8,R7
	OUT  0x8,R6
	OUT  0x8,R9
	OUT  0x8,R8
	OUT  0x8,R11
	OUT  0x8,R10
	OUT  0x8,R5
	OUT  0x8,R4
	OUT  0x8,R7
	OUT  0x8,R6
	OUT  0x8,R9
	OUT  0x8,R8
	OUT  0x8,R11
	OUT  0x8,R10
	OUT  0x8,R5
	OUT  0x8,R4
	OUT  0x8,R7
	OUT  0x8,R6
	OUT  0x8,R9
	OUT  0x8,R8
	OUT  0x8,R11
	OUT  0x8,R10
	OUT  0x8,R5
	OUT  0x8,R4
	OUT  0x8,R7
	OUT  0x8,R6
	OUT  0x8,R9
	OUT  0x8,R8
	OUT  0x8,R11
	OUT  0x8,R10
	OUT  0x8,R5
	OUT  0x8,R4
	OUT  0x8,R7
	OUT  0x8,R6
	OUT  0x8,R9
	OUT  0x8,R8
	OUT  0x8,R11
	OUT  0x8,R10
	OUT  0x8,R5
	OUT  0x8,R4
	OUT  0x8,R7
	OUT  0x8,R6
	OUT  0x8,R9
	OUT  0x8,R8
	OUT  0x8,R11
	OUT  0x8,R10
	OUT  0x8,R5
	OUT  0x8,R4
	OUT  0x8,R7
	OUT  0x8,R6
	OUT  0x8,R9
	OUT  0x8,R8
	OUT  0x8,R11
	OUT  0x8,R10
	OUT  0x8,R5
	OUT  0x8,R4
	OUT  0x8,R7
	OUT  0x8,R6
	OUT  0x8,R9
	OUT  0x8,R8
	OUT  0x8,R11
	OUT  0x8,R10
	OUT  0x8,R5
	OUT  0x8,R4
	OUT  0x8,R7
	OUT  0x8,R6
	OUT  0x8,R9
	OUT  0x8,R8
	OUT  0x8,R11
	OUT  0x8,R10
	OUT  0x8,R5
	OUT  0x8,R4
	OUT  0x8,R7
	OUT  0x8,R6
	OUT  0x8,R9
	OUT  0x8,R8
	OUT  0x8,R11
	OUT  0x8,R10
	OUT  0x8,R5
	OUT  0x8,R4
	OUT  0x8,R7
	OUT  0x8,R6
	OUT  0x8,R9
	OUT  0x8,R8
	OUT  0x8,R11
	OUT  0x8,R10
	OUT  0x8,R5
	OUT  0x8,R4
	OUT  0x8,R7
	OUT  0x8,R6
	OUT  0x8,R9
	OUT  0x8,R8
	OUT  0x8,R11
	OUT  0x8,R10
	OUT  0x8,R5
	OUT  0x8,R4
	OUT  0x8,R7
	OUT  0x8,R6
	OUT  0x8,R9
	OUT  0x8,R8
	OUT  0x8,R11
	OUT  0x8,R10
	OUT  0x8,R5
	OUT  0x8,R4
	OUT  0x8,R7
	OUT  0x8,R6
	OUT  0x8,R9
	OUT  0x8,R8
	OUT  0x8,R11
	OUT  0x8,R10
	OUT  0x8,R5
	OUT  0x8,R4
	OUT  0x8,R7
	OUT  0x8,R6
	OUT  0x8,R9
	OUT  0x8,R8
	OUT  0x8,R11
	OUT  0x8,R10
	OUT  0x8,R5
	OUT  0x8,R4
	OUT  0x8,R7
	OUT  0x8,R6
	OUT  0x8,R9
	OUT  0x8,R8
	OUT  0x8,R11
	OUT  0x8,R10
	OUT  0x8,R5
	OUT  0x8,R4
	OUT  0x8,R7
	OUT  0x8,R6
	OUT  0x8,R9
	OUT  0x8,R8
	OUT  0x8,R11
	OUT  0x8,R10
	OUT  0x8,R5
	OUT  0x8,R4
	OUT  0x8,R7
	OUT  0x8,R6
	OUT  0x8,R9
	OUT  0x8,R8
	OUT  0x8,R11
	OUT  0x8,R10
	OUT  0x8,R5
	OUT  0x8,R4
	OUT  0x8,R7
	OUT  0x8,R6
	OUT  0x8,R9
	OUT  0x8,R8
	OUT  0x8,R11
	OUT  0x8,R10
	OUT  0x8,R5
	OUT  0x8,R4
	OUT  0x8,R7
	OUT  0x8,R6
	OUT  0x8,R9
	OUT  0x8,R8
	OUT  0x8,R11
	OUT  0x8,R10
	OUT  0x8,R5
	OUT  0x8,R4
	OUT  0x8,R7
	OUT  0x8,R6
	OUT  0x8,R9
	OUT  0x8,R8
	OUT  0x8,R11
	OUT  0x8,R10
	OUT  0x8,R5
	OUT  0x8,R4
	OUT  0x8,R7
	OUT  0x8,R6
	OUT  0x8,R9
	OUT  0x8,R8
	OUT  0x8,R11
	OUT  0x8,R10
	OUT  0x8,R5
	OUT  0x8,R4
	OUT  0x8,R7
	OUT  0x8,R6
	OUT  0x8,R9
	OUT  0x8,R8
	OUT  0x8,R11
	OUT  0x8,R10
	OUT  0x8,R5
	OUT  0x8,R4
	OUT  0x8,R7
	OUT  0x8,R6
	OUT  0x8,R9
	OUT  0x8,R8
	OUT  0x8,R11
	OUT  0x8,R10
	OUT  0x8,R5
	OUT  0x8,R4
	OUT  0x8,R7
	OUT  0x8,R6
	OUT  0x8,R9
	OUT  0x8,R8
	OUT  0x8,R11
	OUT  0x8,R10
	OUT  0x8,R5
	OUT  0x8,R4
	OUT  0x8,R7
	OUT  0x8,R6
	OUT  0x8,R9
	OUT  0x8,R8
	OUT  0x8,R11
	OUT  0x8,R10
	OUT  0x8,R5
	OUT  0x8,R4
	OUT  0x8,R7
	OUT  0x8,R6
	OUT  0x8,R9
	OUT  0x8,R8
	OUT  0x8,R11
	OUT  0x8,R10
	OUT  0x8,R5
	OUT  0x8,R4
	OUT  0x8,R7
	OUT  0x8,R6
	OUT  0x8,R9
	OUT  0x8,R8
	OUT  0x8,R11
	OUT  0x8,R10
	OUT  0x8,R5
	OUT  0x8,R4
	OUT  0x8,R7
	OUT  0x8,R6
	OUT  0x8,R9
	OUT  0x8,R8
	OUT  0x8,R11
	OUT  0x8,R10
	OUT  0x8,R5
	OUT  0x8,R4
	OUT  0x8,R7
	OUT  0x8,R6
	OUT  0x8,R9
	OUT  0x8,R8
	OUT  0x8,R11
	OUT  0x8,R10
	OUT  0x8,R5
	OUT  0x8,R4
	OUT  0x8,R7
	OUT  0x8,R6
	OUT  0x8,R9
	OUT  0x8,R8
	OUT  0x8,R11
	OUT  0x8,R10
	OUT  0x8,R5
	OUT  0x8,R4
	OUT  0x8,R7
	OUT  0x8,R6
	OUT  0x8,R9
	OUT  0x8,R8
	OUT  0x8,R11
	OUT  0x8,R10
	OUT  0x8,R5
	OUT  0x8,R4
	OUT  0x8,R7
	OUT  0x8,R6
	OUT  0x8,R9
	OUT  0x8,R8
	OUT  0x8,R11
	OUT  0x8,R10
	OUT  0x8,R5
	OUT  0x8,R4
	OUT  0x8,R7
	OUT  0x8,R6
	OUT  0x8,R9
	OUT  0x8,R8
	OUT  0x8,R11
	OUT  0x8,R10
	OUT  0x8,R5
	OUT  0x8,R4
	OUT  0x8,R7
	OUT  0x8,R6
	OUT  0x8,R9
	OUT  0x8,R8
	OUT  0x8,R11
	OUT  0x8,R10
	OUT  0x8,R5
	OUT  0x8,R4
	OUT  0x8,R7
	OUT  0x8,R6
	OUT  0x8,R9
	OUT  0x8,R8
	OUT  0x8,R11
	OUT  0x8,R10
	OUT  0x8,R5
	OUT  0x8,R4
	OUT  0x8,R7
	OUT  0x8,R6
	OUT  0x8,R9
	OUT  0x8,R8
	OUT  0x8,R11
	OUT  0x8,R10
	OUT  0x8,R5
	OUT  0x8,R4
	OUT  0x8,R7
	OUT  0x8,R6
	OUT  0x8,R9
	OUT  0x8,R8
	OUT  0x8,R11
	OUT  0x8,R10
	OUT  0x8,R5
	OUT  0x8,R4
	OUT  0x8,R7
	OUT  0x8,R6
	OUT  0x8,R9
	OUT  0x8,R8
	OUT  0x8,R11
	OUT  0x8,R10
	OUT  0x8,R5
	OUT  0x8,R4
	OUT  0x8,R7
	OUT  0x8,R6
	OUT  0x8,R9
	OUT  0x8,R8
	OUT  0x8,R11
	OUT  0x8,R10
	OUT  0x8,R5
	OUT  0x8,R4
	OUT  0x8,R7
	OUT  0x8,R6
	OUT  0x8,R9
	OUT  0x8,R8
	OUT  0x8,R11
	OUT  0x8,R10
	OUT  0x8,R5
	OUT  0x8,R4
	OUT  0x8,R7
	OUT  0x8,R6
	OUT  0x8,R9
	OUT  0x8,R8
	OUT  0x8,R11
	OUT  0x8,R10
	OUT  0x8,R5
	OUT  0x8,R4
	OUT  0x8,R7
	OUT  0x8,R6
	OUT  0x8,R9
	OUT  0x8,R8
	OUT  0x8,R11
	OUT  0x8,R10
	OUT  0x8,R5
	OUT  0x8,R4
	OUT  0x8,R7
	OUT  0x8,R6
	OUT  0x8,R9
	OUT  0x8,R8
	OUT  0x8,R11
	OUT  0x8,R10
	OUT  0x8,R5
	OUT  0x8,R4
	OUT  0x8,R7
	OUT  0x8,R6
	OUT  0x8,R9
	OUT  0x8,R8
	OUT  0x8,R11
	OUT  0x8,R10
	OUT  0x8,R5
	OUT  0x8,R4
	OUT  0x8,R7
	OUT  0x8,R6
	OUT  0x8,R9
	OUT  0x8,R8
	OUT  0x8,R11
	OUT  0x8,R10
	OUT  0x8,R5
	OUT  0x8,R4
	OUT  0x8,R7
	OUT  0x8,R6
	OUT  0x8,R9
	OUT  0x8,R8
	OUT  0x8,R11
	OUT  0x8,R10
	OUT  0x8,R5
	OUT  0x8,R4
	OUT  0x8,R7
	OUT  0x8,R6
	OUT  0x8,R9
	OUT  0x8,R8
	OUT  0x8,R11
	OUT  0x8,R10
	OUT  0x8,R5
	OUT  0x8,R4
	OUT  0x8,R7
	OUT  0x8,R6
	OUT  0x8,R9
	OUT  0x8,R8
	OUT  0x8,R11
	OUT  0x8,R10
	OUT  0x8,R5
	OUT  0x8,R4
	OUT  0x8,R7
	OUT  0x8,R6
	OUT  0x8,R9
	OUT  0x8,R8
	OUT  0x8,R11
	OUT  0x8,R10
	OUT  0x8,R5
	OUT  0x8,R4
	OUT  0x8,R7
	OUT  0x8,R6
	OUT  0x8,R9
	OUT  0x8,R8
	OUT  0x8,R11
	OUT  0x8,R10
	OUT  0x8,R5
	OUT  0x8,R4
	OUT  0x8,R7
	OUT  0x8,R6
	OUT  0x8,R9
	OUT  0x8,R8
	OUT  0x8,R11
	OUT  0x8,R10
	OUT  0x8,R5
	OUT  0x8,R4
	OUT  0x8,R7
	OUT  0x8,R6
	OUT  0x8,R9
	OUT  0x8,R8
	OUT  0x8,R11
	OUT  0x8,R10
	OUT  0x8,R5
	OUT  0x8,R4
	OUT  0x8,R7
	OUT  0x8,R6
	OUT  0x8,R9
	OUT  0x8,R8
	OUT  0x8,R11
	OUT  0x8,R10
	OUT  0x8,R5
	OUT  0x8,R4
	OUT  0x8,R7
	OUT  0x8,R6
	OUT  0x8,R9
	OUT  0x8,R8
	OUT  0x8,R11
	OUT  0x8,R10
	OUT  0x8,R5
	OUT  0x8,R4
	OUT  0x8,R7
	OUT  0x8,R6
	OUT  0x8,R9
	OUT  0x8,R8
	OUT  0x8,R11
	OUT  0x8,R10
	OUT  0x8,R5
	OUT  0x8,R4
	OUT  0x8,R7
	OUT  0x8,R6
	OUT  0x8,R9
	OUT  0x8,R8
	OUT  0x8,R11
	OUT  0x8,R10
	OUT  0x8,R5
	OUT  0x8,R4
	OUT  0x8,R7
	OUT  0x8,R6
	OUT  0x8,R9
	OUT  0x8,R8
	OUT  0x8,R11
	OUT  0x8,R10
	OUT  0x8,R5
	OUT  0x8,R4
	OUT  0x8,R7
	OUT  0x8,R6
	OUT  0x8,R9
	OUT  0x8,R8
	OUT  0x8,R11
	OUT  0x8,R10
	OUT  0x8,R5
	OUT  0x8,R4
	OUT  0x8,R7
	OUT  0x8,R6
	OUT  0x8,R9
	OUT  0x8,R8
	OUT  0x8,R11
	OUT  0x8,R10
	OUT  0x8,R5
	OUT  0x8,R4
	OUT  0x8,R7
	OUT  0x8,R6
	OUT  0x8,R9
	OUT  0x8,R8
	OUT  0x8,R11
	OUT  0x8,R10
	OUT  0x8,R5
	OUT  0x8,R4
	OUT  0x8,R7
	OUT  0x8,R6
	OUT  0x8,R9
	OUT  0x8,R8
	OUT  0x8,R11
	OUT  0x8,R10
	OUT  0x8,R5
	OUT  0x8,R4
	OUT  0x8,R7
	OUT  0x8,R6
	OUT  0x8,R9
	OUT  0x8,R8
	OUT  0x8,R11
	OUT  0x8,R10
	OUT  0x8,R5
	OUT  0x8,R4
	OUT  0x8,R7
	OUT  0x8,R6
	OUT  0x8,R9
	OUT  0x8,R8
	OUT  0x8,R11
	OUT  0x8,R10
	OUT  0x8,R5
	OUT  0x8,R4
	OUT  0x8,R7
	OUT  0x8,R6
	OUT  0x8,R9
	OUT  0x8,R8
	OUT  0x8,R11
	OUT  0x8,R10
	OUT  0x8,R5
	OUT  0x8,R4
	OUT  0x8,R7
	OUT  0x8,R6
	OUT  0x8,R9
	OUT  0x8,R8
	OUT  0x8,R11
	OUT  0x8,R10
	OUT  0x8,R5
	OUT  0x8,R4
	OUT  0x8,R7
	OUT  0x8,R6
	OUT  0x8,R9
	OUT  0x8,R8
	OUT  0x8,R11
	OUT  0x8,R10
	OUT  0x8,R5
	OUT  0x8,R4
	OUT  0x8,R7
	OUT  0x8,R6
	OUT  0x8,R9
	OUT  0x8,R8
	OUT  0x8,R11
	OUT  0x8,R10
	OUT  0x8,R5
	OUT  0x8,R4
	OUT  0x8,R7
	OUT  0x8,R6
	OUT  0x8,R9
	OUT  0x8,R8
	OUT  0x8,R11
	OUT  0x8,R10
	OUT  0x8,R5
	OUT  0x8,R4
	OUT  0x8,R7
	OUT  0x8,R6
	OUT  0x8,R9
	OUT  0x8,R8
	OUT  0x8,R11
	OUT  0x8,R10
	OUT  0x8,R5
	OUT  0x8,R4
	OUT  0x8,R7
	OUT  0x8,R6
	OUT  0x8,R9
	OUT  0x8,R8
	OUT  0x8,R11
	OUT  0x8,R10
	OUT  0x8,R5
	OUT  0x8,R4
	OUT  0x8,R7
	OUT  0x8,R6
	OUT  0x8,R9
	OUT  0x8,R8
	OUT  0x8,R11
	OUT  0x8,R10
	OUT  0x8,R5
	OUT  0x8,R4
	OUT  0x8,R7
	OUT  0x8,R6
	OUT  0x8,R9
	OUT  0x8,R8
	OUT  0x8,R11
	OUT  0x8,R10
	OUT  0x8,R5
	OUT  0x8,R4
	OUT  0x8,R7
	OUT  0x8,R6
	OUT  0x8,R9
	OUT  0x8,R8
	OUT  0x8,R11
	OUT  0x8,R10
	OUT  0x8,R5
	OUT  0x8,R4
	OUT  0x8,R7
	OUT  0x8,R6
	OUT  0x8,R9
	OUT  0x8,R8
	OUT  0x8,R11
	OUT  0x8,R10
	OUT  0x8,R5
	OUT  0x8,R4
	OUT  0x8,R7
	OUT  0x8,R6
	OUT  0x8,R9
	OUT  0x8,R8
	OUT  0x8,R11
	OUT  0x8,R10
	OUT  0x8,R5
	OUT  0x8,R4
	OUT  0x8,R7
	OUT  0x8,R6
	OUT  0x8,R9
	OUT  0x8,R8
	OUT  0x8,R11
	OUT  0x8,R10
	OUT  0x8,R5
	OUT  0x8,R4
	OUT  0x8,R7
	OUT  0x8,R6
	OUT  0x8,R9
	OUT  0x8,R8
	OUT  0x8,R11
	OUT  0x8,R10
	OUT  0x8,R5
	OUT  0x8,R4
	OUT  0x8,R7
	OUT  0x8,R6
	OUT  0x8,R9
	OUT  0x8,R8
	OUT  0x8,R11
	OUT  0x8,R10
	OUT  0x8,R5
	OUT  0x8,R4
	OUT  0x8,R7
	OUT  0x8,R6
	OUT  0x8,R9
	OUT  0x8,R8
	OUT  0x8,R11
	OUT  0x8,R10
	OUT  0x8,R5
	OUT  0x8,R4
	OUT  0x8,R7
	OUT  0x8,R6
	OUT  0x8,R9
	OUT  0x8,R8
	OUT  0x8,R11
	OUT  0x8,R10
	OUT  0x8,R5
	OUT  0x8,R4
	OUT  0x8,R7
	OUT  0x8,R6
	OUT  0x8,R9
	OUT  0x8,R8
	OUT  0x8,R11
	OUT  0x8,R10
	OUT  0x8,R5
	OUT  0x8,R4
	OUT  0x8,R7
	OUT  0x8,R6
	OUT  0x8,R9
	OUT  0x8,R8
	OUT  0x8,R11
	OUT  0x8,R10
	OUT  0x8,R5
	OUT  0x8,R4
	OUT  0x8,R7
	OUT  0x8,R6
	OUT  0x8,R9
	OUT  0x8,R8
	OUT  0x8,R11
	OUT  0x8,R10
	OUT  0x8,R5
	OUT  0x8,R4
	OUT  0x8,R7
	OUT  0x8,R6
	OUT  0x8,R9
	OUT  0x8,R8
	OUT  0x8,R11
	OUT  0x8,R10
	OUT  0x8,R5
	OUT  0x8,R4
	OUT  0x8,R7
	OUT  0x8,R6
	OUT  0x8,R9
	OUT  0x8,R8
	OUT  0x8,R11
	OUT  0x8,R10
	OUT  0x8,R5
	OUT  0x8,R4
	OUT  0x8,R7
	OUT  0x8,R6
	OUT  0x8,R9
	OUT  0x8,R8
	OUT  0x8,R11
	OUT  0x8,R10
	OUT  0x8,R5
	OUT  0x8,R4
	OUT  0x8,R7
	OUT  0x8,R6
	OUT  0x8,R9
	OUT  0x8,R8
	OUT  0x8,R11
	OUT  0x8,R10
	OUT  0x8,R5
	OUT  0x8,R4
	OUT  0x8,R7
	OUT  0x8,R6
	OUT  0x8,R9
	OUT  0x8,R8
	OUT  0x8,R11
	OUT  0x8,R10
	OUT  0x8,R5
	OUT  0x8,R4
	OUT  0x8,R7
	OUT  0x8,R6
	OUT  0x8,R9
	OUT  0x8,R8
	OUT  0x8,R11
	OUT  0x8,R10
	OUT  0x8,R5
	OUT  0x8,R4
	OUT  0x8,R7
	OUT  0x8,R6
	OUT  0x8,R9
	OUT  0x8,R8
	OUT  0x8,R11
	OUT  0x8,R10
	OUT  0x8,R5
	OUT  0x8,R4
	OUT  0x8,R7
	OUT  0x8,R6
	OUT  0x8,R9
	OUT  0x8,R8
	OUT  0x8,R11
	OUT  0x8,R10
	OUT  0x8,R5
	OUT  0x8,R4
	OUT  0x8,R7
	OUT  0x8,R6
	OUT  0x8,R9
	OUT  0x8,R8
	OUT  0x8,R11
	OUT  0x8,R10
	OUT  0x8,R5
	OUT  0x8,R4
	OUT  0x8,R7
	OUT  0x8,R6
	OUT  0x8,R9
	OUT  0x8,R8
	OUT  0x8,R11
	OUT  0x8,R10
	OUT  0x8,R5
	OUT  0x8,R4
	OUT  0x8,R7
	OUT  0x8,R6
	OUT  0x8,R9
	OUT  0x8,R8
	OUT  0x8,R11
	OUT  0x8,R10
	OUT  0x8,R5
	OUT  0x8,R4
	OUT  0x8,R7
	OUT  0x8,R6
	OUT  0x8,R9
	OUT  0x8,R8
	OUT  0x8,R11
	OUT  0x8,R10
	OUT  0x8,R5
	OUT  0x8,R4
	OUT  0x8,R7
	OUT  0x8,R6
	OUT  0x8,R9
	OUT  0x8,R8
	OUT  0x8,R11
	OUT  0x8,R10
	OUT  0x8,R5
	OUT  0x8,R4
	OUT  0x8,R7
	OUT  0x8,R6
	OUT  0x8,R9
	OUT  0x8,R8
	OUT  0x8,R11
	OUT  0x8,R10
	OUT  0x8,R5
	OUT  0x8,R4
	OUT  0x8,R7
	OUT  0x8,R6
	OUT  0x8,R9
	OUT  0x8,R8
	OUT  0x8,R11
	OUT  0x8,R10
	OUT  0x8,R5
	OUT  0x8,R4
	OUT  0x8,R7
	OUT  0x8,R6
	OUT  0x8,R9
	OUT  0x8,R8
	OUT  0x8,R11
	OUT  0x8,R10
	OUT  0x8,R5
	OUT  0x8,R4
	OUT  0x8,R7
	OUT  0x8,R6
	OUT  0x8,R9
	OUT  0x8,R8
	OUT  0x8,R11
	OUT  0x8,R10
	OUT  0x8,R5
	OUT  0x8,R4
	OUT  0x8,R7
	OUT  0x8,R6
	OUT  0x8,R9
	OUT  0x8,R8
	OUT  0x8,R11
	OUT  0x8,R10
	OUT  0x8,R5
	OUT  0x8,R4
	OUT  0x8,R7
	OUT  0x8,R6
	OUT  0x8,R9
	OUT  0x8,R8
	OUT  0x8,R11
	OUT  0x8,R10
	OUT  0x8,R5
	OUT  0x8,R4
	OUT  0x8,R7
	OUT  0x8,R6
	OUT  0x8,R9
	OUT  0x8,R8
	OUT  0x8,R11
	OUT  0x8,R10
	OUT  0x8,R5
	OUT  0x8,R4
	OUT  0x8,R7
	OUT  0x8,R6
	OUT  0x8,R9
	OUT  0x8,R8
	OUT  0x8,R11
	OUT  0x8,R10
	OUT  0x8,R5
	OUT  0x8,R4
	OUT  0x8,R7
	OUT  0x8,R6
	OUT  0x8,R9
	OUT  0x8,R8
	OUT  0x8,R11
	OUT  0x8,R10
; 0000 0220         pixel1000
	OUT  0x8,R5
	OUT  0x8,R4
	OUT  0x8,R7
	OUT  0x8,R6
	OUT  0x8,R9
	OUT  0x8,R8
	OUT  0x8,R11
	OUT  0x8,R10
	OUT  0x8,R5
	OUT  0x8,R4
	OUT  0x8,R7
	OUT  0x8,R6
	OUT  0x8,R9
	OUT  0x8,R8
	OUT  0x8,R11
	OUT  0x8,R10
	OUT  0x8,R5
	OUT  0x8,R4
	OUT  0x8,R7
	OUT  0x8,R6
	OUT  0x8,R9
	OUT  0x8,R8
	OUT  0x8,R11
	OUT  0x8,R10
	OUT  0x8,R5
	OUT  0x8,R4
	OUT  0x8,R7
	OUT  0x8,R6
	OUT  0x8,R9
	OUT  0x8,R8
	OUT  0x8,R11
	OUT  0x8,R10
	OUT  0x8,R5
	OUT  0x8,R4
	OUT  0x8,R7
	OUT  0x8,R6
	OUT  0x8,R9
	OUT  0x8,R8
	OUT  0x8,R11
	OUT  0x8,R10
	OUT  0x8,R5
	OUT  0x8,R4
	OUT  0x8,R7
	OUT  0x8,R6
	OUT  0x8,R9
	OUT  0x8,R8
	OUT  0x8,R11
	OUT  0x8,R10
	OUT  0x8,R5
	OUT  0x8,R4
	OUT  0x8,R7
	OUT  0x8,R6
	OUT  0x8,R9
	OUT  0x8,R8
	OUT  0x8,R11
	OUT  0x8,R10
	OUT  0x8,R5
	OUT  0x8,R4
	OUT  0x8,R7
	OUT  0x8,R6
	OUT  0x8,R9
	OUT  0x8,R8
	OUT  0x8,R11
	OUT  0x8,R10
	OUT  0x8,R5
	OUT  0x8,R4
	OUT  0x8,R7
	OUT  0x8,R6
	OUT  0x8,R9
	OUT  0x8,R8
	OUT  0x8,R11
	OUT  0x8,R10
	OUT  0x8,R5
	OUT  0x8,R4
	OUT  0x8,R7
	OUT  0x8,R6
	OUT  0x8,R9
	OUT  0x8,R8
	OUT  0x8,R11
	OUT  0x8,R10
	OUT  0x8,R5
	OUT  0x8,R4
	OUT  0x8,R7
	OUT  0x8,R6
	OUT  0x8,R9
	OUT  0x8,R8
	OUT  0x8,R11
	OUT  0x8,R10
	OUT  0x8,R5
	OUT  0x8,R4
	OUT  0x8,R7
	OUT  0x8,R6
	OUT  0x8,R9
	OUT  0x8,R8
	OUT  0x8,R11
	OUT  0x8,R10
	OUT  0x8,R5
	OUT  0x8,R4
	OUT  0x8,R7
	OUT  0x8,R6
	OUT  0x8,R9
	OUT  0x8,R8
	OUT  0x8,R11
	OUT  0x8,R10
	OUT  0x8,R5
	OUT  0x8,R4
	OUT  0x8,R7
	OUT  0x8,R6
	OUT  0x8,R9
	OUT  0x8,R8
	OUT  0x8,R11
	OUT  0x8,R10
	OUT  0x8,R5
	OUT  0x8,R4
	OUT  0x8,R7
	OUT  0x8,R6
	OUT  0x8,R9
	OUT  0x8,R8
	OUT  0x8,R11
	OUT  0x8,R10
	OUT  0x8,R5
	OUT  0x8,R4
	OUT  0x8,R7
	OUT  0x8,R6
	OUT  0x8,R9
	OUT  0x8,R8
	OUT  0x8,R11
	OUT  0x8,R10
	OUT  0x8,R5
	OUT  0x8,R4
	OUT  0x8,R7
	OUT  0x8,R6
	OUT  0x8,R9
	OUT  0x8,R8
	OUT  0x8,R11
	OUT  0x8,R10
	OUT  0x8,R5
	OUT  0x8,R4
	OUT  0x8,R7
	OUT  0x8,R6
	OUT  0x8,R9
	OUT  0x8,R8
	OUT  0x8,R11
	OUT  0x8,R10
	OUT  0x8,R5
	OUT  0x8,R4
	OUT  0x8,R7
	OUT  0x8,R6
	OUT  0x8,R9
	OUT  0x8,R8
	OUT  0x8,R11
	OUT  0x8,R10
	OUT  0x8,R5
	OUT  0x8,R4
	OUT  0x8,R7
	OUT  0x8,R6
	OUT  0x8,R9
	OUT  0x8,R8
	OUT  0x8,R11
	OUT  0x8,R10
	OUT  0x8,R5
	OUT  0x8,R4
	OUT  0x8,R7
	OUT  0x8,R6
	OUT  0x8,R9
	OUT  0x8,R8
	OUT  0x8,R11
	OUT  0x8,R10
	OUT  0x8,R5
	OUT  0x8,R4
	OUT  0x8,R7
	OUT  0x8,R6
	OUT  0x8,R9
	OUT  0x8,R8
	OUT  0x8,R11
	OUT  0x8,R10
	OUT  0x8,R5
	OUT  0x8,R4
	OUT  0x8,R7
	OUT  0x8,R6
	OUT  0x8,R9
	OUT  0x8,R8
	OUT  0x8,R11
	OUT  0x8,R10
	OUT  0x8,R5
	OUT  0x8,R4
	OUT  0x8,R7
	OUT  0x8,R6
	OUT  0x8,R9
	OUT  0x8,R8
	OUT  0x8,R11
	OUT  0x8,R10
	OUT  0x8,R5
	OUT  0x8,R4
	OUT  0x8,R7
	OUT  0x8,R6
	OUT  0x8,R9
	OUT  0x8,R8
	OUT  0x8,R11
	OUT  0x8,R10
	OUT  0x8,R5
	OUT  0x8,R4
	OUT  0x8,R7
	OUT  0x8,R6
	OUT  0x8,R9
	OUT  0x8,R8
	OUT  0x8,R11
	OUT  0x8,R10
	OUT  0x8,R5
	OUT  0x8,R4
	OUT  0x8,R7
	OUT  0x8,R6
	OUT  0x8,R9
	OUT  0x8,R8
	OUT  0x8,R11
	OUT  0x8,R10
	OUT  0x8,R5
	OUT  0x8,R4
	OUT  0x8,R7
	OUT  0x8,R6
	OUT  0x8,R9
	OUT  0x8,R8
	OUT  0x8,R11
	OUT  0x8,R10
	OUT  0x8,R5
	OUT  0x8,R4
	OUT  0x8,R7
	OUT  0x8,R6
	OUT  0x8,R9
	OUT  0x8,R8
	OUT  0x8,R11
	OUT  0x8,R10
	OUT  0x8,R5
	OUT  0x8,R4
	OUT  0x8,R7
	OUT  0x8,R6
	OUT  0x8,R9
	OUT  0x8,R8
	OUT  0x8,R11
	OUT  0x8,R10
	OUT  0x8,R5
	OUT  0x8,R4
	OUT  0x8,R7
	OUT  0x8,R6
	OUT  0x8,R9
	OUT  0x8,R8
	OUT  0x8,R11
	OUT  0x8,R10
	OUT  0x8,R5
	OUT  0x8,R4
	OUT  0x8,R7
	OUT  0x8,R6
	OUT  0x8,R9
	OUT  0x8,R8
	OUT  0x8,R11
	OUT  0x8,R10
	OUT  0x8,R5
	OUT  0x8,R4
	OUT  0x8,R7
	OUT  0x8,R6
	OUT  0x8,R9
	OUT  0x8,R8
	OUT  0x8,R11
	OUT  0x8,R10
	OUT  0x8,R5
	OUT  0x8,R4
	OUT  0x8,R7
	OUT  0x8,R6
	OUT  0x8,R9
	OUT  0x8,R8
	OUT  0x8,R11
	OUT  0x8,R10
	OUT  0x8,R5
	OUT  0x8,R4
	OUT  0x8,R7
	OUT  0x8,R6
	OUT  0x8,R9
	OUT  0x8,R8
	OUT  0x8,R11
	OUT  0x8,R10
	OUT  0x8,R5
	OUT  0x8,R4
	OUT  0x8,R7
	OUT  0x8,R6
	OUT  0x8,R9
	OUT  0x8,R8
	OUT  0x8,R11
	OUT  0x8,R10
	OUT  0x8,R5
	OUT  0x8,R4
	OUT  0x8,R7
	OUT  0x8,R6
	OUT  0x8,R9
	OUT  0x8,R8
	OUT  0x8,R11
	OUT  0x8,R10
	OUT  0x8,R5
	OUT  0x8,R4
	OUT  0x8,R7
	OUT  0x8,R6
	OUT  0x8,R9
	OUT  0x8,R8
	OUT  0x8,R11
	OUT  0x8,R10
	OUT  0x8,R5
	OUT  0x8,R4
	OUT  0x8,R7
	OUT  0x8,R6
	OUT  0x8,R9
	OUT  0x8,R8
	OUT  0x8,R11
	OUT  0x8,R10
	OUT  0x8,R5
	OUT  0x8,R4
	OUT  0x8,R7
	OUT  0x8,R6
	OUT  0x8,R9
	OUT  0x8,R8
	OUT  0x8,R11
	OUT  0x8,R10
	OUT  0x8,R5
	OUT  0x8,R4
	OUT  0x8,R7
	OUT  0x8,R6
	OUT  0x8,R9
	OUT  0x8,R8
	OUT  0x8,R11
	OUT  0x8,R10
	OUT  0x8,R5
	OUT  0x8,R4
	OUT  0x8,R7
	OUT  0x8,R6
	OUT  0x8,R9
	OUT  0x8,R8
	OUT  0x8,R11
	OUT  0x8,R10
	OUT  0x8,R5
	OUT  0x8,R4
	OUT  0x8,R7
	OUT  0x8,R6
	OUT  0x8,R9
	OUT  0x8,R8
	OUT  0x8,R11
	OUT  0x8,R10
	OUT  0x8,R5
	OUT  0x8,R4
	OUT  0x8,R7
	OUT  0x8,R6
	OUT  0x8,R9
	OUT  0x8,R8
	OUT  0x8,R11
	OUT  0x8,R10
	OUT  0x8,R5
	OUT  0x8,R4
	OUT  0x8,R7
	OUT  0x8,R6
	OUT  0x8,R9
	OUT  0x8,R8
	OUT  0x8,R11
	OUT  0x8,R10
	OUT  0x8,R5
	OUT  0x8,R4
	OUT  0x8,R7
	OUT  0x8,R6
	OUT  0x8,R9
	OUT  0x8,R8
	OUT  0x8,R11
	OUT  0x8,R10
	OUT  0x8,R5
	OUT  0x8,R4
	OUT  0x8,R7
	OUT  0x8,R6
	OUT  0x8,R9
	OUT  0x8,R8
	OUT  0x8,R11
	OUT  0x8,R10
	OUT  0x8,R5
	OUT  0x8,R4
	OUT  0x8,R7
	OUT  0x8,R6
	OUT  0x8,R9
	OUT  0x8,R8
	OUT  0x8,R11
	OUT  0x8,R10
	OUT  0x8,R5
	OUT  0x8,R4
	OUT  0x8,R7
	OUT  0x8,R6
	OUT  0x8,R9
	OUT  0x8,R8
	OUT  0x8,R11
	OUT  0x8,R10
	OUT  0x8,R5
	OUT  0x8,R4
	OUT  0x8,R7
	OUT  0x8,R6
	OUT  0x8,R9
	OUT  0x8,R8
	OUT  0x8,R11
	OUT  0x8,R10
	OUT  0x8,R5
	OUT  0x8,R4
	OUT  0x8,R7
	OUT  0x8,R6
	OUT  0x8,R9
	OUT  0x8,R8
	OUT  0x8,R11
	OUT  0x8,R10
	OUT  0x8,R5
	OUT  0x8,R4
	OUT  0x8,R7
	OUT  0x8,R6
	OUT  0x8,R9
	OUT  0x8,R8
	OUT  0x8,R11
	OUT  0x8,R10
	OUT  0x8,R5
	OUT  0x8,R4
	OUT  0x8,R7
	OUT  0x8,R6
	OUT  0x8,R9
	OUT  0x8,R8
	OUT  0x8,R11
	OUT  0x8,R10
	OUT  0x8,R5
	OUT  0x8,R4
	OUT  0x8,R7
	OUT  0x8,R6
	OUT  0x8,R9
	OUT  0x8,R8
	OUT  0x8,R11
	OUT  0x8,R10
	OUT  0x8,R5
	OUT  0x8,R4
	OUT  0x8,R7
	OUT  0x8,R6
	OUT  0x8,R9
	OUT  0x8,R8
	OUT  0x8,R11
	OUT  0x8,R10
	OUT  0x8,R5
	OUT  0x8,R4
	OUT  0x8,R7
	OUT  0x8,R6
	OUT  0x8,R9
	OUT  0x8,R8
	OUT  0x8,R11
	OUT  0x8,R10
	OUT  0x8,R5
	OUT  0x8,R4
	OUT  0x8,R7
	OUT  0x8,R6
	OUT  0x8,R9
	OUT  0x8,R8
	OUT  0x8,R11
	OUT  0x8,R10
	OUT  0x8,R5
	OUT  0x8,R4
	OUT  0x8,R7
	OUT  0x8,R6
	OUT  0x8,R9
	OUT  0x8,R8
	OUT  0x8,R11
	OUT  0x8,R10
	OUT  0x8,R5
	OUT  0x8,R4
	OUT  0x8,R7
	OUT  0x8,R6
	OUT  0x8,R9
	OUT  0x8,R8
	OUT  0x8,R11
	OUT  0x8,R10
	OUT  0x8,R5
	OUT  0x8,R4
	OUT  0x8,R7
	OUT  0x8,R6
	OUT  0x8,R9
	OUT  0x8,R8
	OUT  0x8,R11
	OUT  0x8,R10
	OUT  0x8,R5
	OUT  0x8,R4
	OUT  0x8,R7
	OUT  0x8,R6
	OUT  0x8,R9
	OUT  0x8,R8
	OUT  0x8,R11
	OUT  0x8,R10
	OUT  0x8,R5
	OUT  0x8,R4
	OUT  0x8,R7
	OUT  0x8,R6
	OUT  0x8,R9
	OUT  0x8,R8
	OUT  0x8,R11
	OUT  0x8,R10
	OUT  0x8,R5
	OUT  0x8,R4
	OUT  0x8,R7
	OUT  0x8,R6
	OUT  0x8,R9
	OUT  0x8,R8
	OUT  0x8,R11
	OUT  0x8,R10
	OUT  0x8,R5
	OUT  0x8,R4
	OUT  0x8,R7
	OUT  0x8,R6
	OUT  0x8,R9
	OUT  0x8,R8
	OUT  0x8,R11
	OUT  0x8,R10
	OUT  0x8,R5
	OUT  0x8,R4
	OUT  0x8,R7
	OUT  0x8,R6
	OUT  0x8,R9
	OUT  0x8,R8
	OUT  0x8,R11
	OUT  0x8,R10
	OUT  0x8,R5
	OUT  0x8,R4
	OUT  0x8,R7
	OUT  0x8,R6
	OUT  0x8,R9
	OUT  0x8,R8
	OUT  0x8,R11
	OUT  0x8,R10
	OUT  0x8,R5
	OUT  0x8,R4
	OUT  0x8,R7
	OUT  0x8,R6
	OUT  0x8,R9
	OUT  0x8,R8
	OUT  0x8,R11
	OUT  0x8,R10
	OUT  0x8,R5
	OUT  0x8,R4
	OUT  0x8,R7
	OUT  0x8,R6
	OUT  0x8,R9
	OUT  0x8,R8
	OUT  0x8,R11
	OUT  0x8,R10
	OUT  0x8,R5
	OUT  0x8,R4
	OUT  0x8,R7
	OUT  0x8,R6
	OUT  0x8,R9
	OUT  0x8,R8
	OUT  0x8,R11
	OUT  0x8,R10
	OUT  0x8,R5
	OUT  0x8,R4
	OUT  0x8,R7
	OUT  0x8,R6
	OUT  0x8,R9
	OUT  0x8,R8
	OUT  0x8,R11
	OUT  0x8,R10
	OUT  0x8,R5
	OUT  0x8,R4
	OUT  0x8,R7
	OUT  0x8,R6
	OUT  0x8,R9
	OUT  0x8,R8
	OUT  0x8,R11
	OUT  0x8,R10
	OUT  0x8,R5
	OUT  0x8,R4
	OUT  0x8,R7
	OUT  0x8,R6
	OUT  0x8,R9
	OUT  0x8,R8
	OUT  0x8,R11
	OUT  0x8,R10
	OUT  0x8,R5
	OUT  0x8,R4
	OUT  0x8,R7
	OUT  0x8,R6
	OUT  0x8,R9
	OUT  0x8,R8
	OUT  0x8,R11
	OUT  0x8,R10
	OUT  0x8,R5
	OUT  0x8,R4
	OUT  0x8,R7
	OUT  0x8,R6
	OUT  0x8,R9
	OUT  0x8,R8
	OUT  0x8,R11
	OUT  0x8,R10
	OUT  0x8,R5
	OUT  0x8,R4
	OUT  0x8,R7
	OUT  0x8,R6
	OUT  0x8,R9
	OUT  0x8,R8
	OUT  0x8,R11
	OUT  0x8,R10
	OUT  0x8,R5
	OUT  0x8,R4
	OUT  0x8,R7
	OUT  0x8,R6
	OUT  0x8,R9
	OUT  0x8,R8
	OUT  0x8,R11
	OUT  0x8,R10
	OUT  0x8,R5
	OUT  0x8,R4
	OUT  0x8,R7
	OUT  0x8,R6
	OUT  0x8,R9
	OUT  0x8,R8
	OUT  0x8,R11
	OUT  0x8,R10
	OUT  0x8,R5
	OUT  0x8,R4
	OUT  0x8,R7
	OUT  0x8,R6
	OUT  0x8,R9
	OUT  0x8,R8
	OUT  0x8,R11
	OUT  0x8,R10
	OUT  0x8,R5
	OUT  0x8,R4
	OUT  0x8,R7
	OUT  0x8,R6
	OUT  0x8,R9
	OUT  0x8,R8
	OUT  0x8,R11
	OUT  0x8,R10
	OUT  0x8,R5
	OUT  0x8,R4
	OUT  0x8,R7
	OUT  0x8,R6
	OUT  0x8,R9
	OUT  0x8,R8
	OUT  0x8,R11
	OUT  0x8,R10
	OUT  0x8,R5
	OUT  0x8,R4
	OUT  0x8,R7
	OUT  0x8,R6
	OUT  0x8,R9
	OUT  0x8,R8
	OUT  0x8,R11
	OUT  0x8,R10
	OUT  0x8,R5
	OUT  0x8,R4
	OUT  0x8,R7
	OUT  0x8,R6
	OUT  0x8,R9
	OUT  0x8,R8
	OUT  0x8,R11
	OUT  0x8,R10
	OUT  0x8,R5
	OUT  0x8,R4
	OUT  0x8,R7
	OUT  0x8,R6
	OUT  0x8,R9
	OUT  0x8,R8
	OUT  0x8,R11
	OUT  0x8,R10
	OUT  0x8,R5
	OUT  0x8,R4
	OUT  0x8,R7
	OUT  0x8,R6
	OUT  0x8,R9
	OUT  0x8,R8
	OUT  0x8,R11
	OUT  0x8,R10
	OUT  0x8,R5
	OUT  0x8,R4
	OUT  0x8,R7
	OUT  0x8,R6
	OUT  0x8,R9
	OUT  0x8,R8
	OUT  0x8,R11
	OUT  0x8,R10
	OUT  0x8,R5
	OUT  0x8,R4
	OUT  0x8,R7
	OUT  0x8,R6
	OUT  0x8,R9
	OUT  0x8,R8
	OUT  0x8,R11
	OUT  0x8,R10
	OUT  0x8,R5
	OUT  0x8,R4
	OUT  0x8,R7
	OUT  0x8,R6
	OUT  0x8,R9
	OUT  0x8,R8
	OUT  0x8,R11
	OUT  0x8,R10
	OUT  0x8,R5
	OUT  0x8,R4
	OUT  0x8,R7
	OUT  0x8,R6
	OUT  0x8,R9
	OUT  0x8,R8
	OUT  0x8,R11
	OUT  0x8,R10
	OUT  0x8,R5
	OUT  0x8,R4
	OUT  0x8,R7
	OUT  0x8,R6
	OUT  0x8,R9
	OUT  0x8,R8
	OUT  0x8,R11
	OUT  0x8,R10
	OUT  0x8,R5
	OUT  0x8,R4
	OUT  0x8,R7
	OUT  0x8,R6
	OUT  0x8,R9
	OUT  0x8,R8
	OUT  0x8,R11
	OUT  0x8,R10
	OUT  0x8,R5
	OUT  0x8,R4
	OUT  0x8,R7
	OUT  0x8,R6
	OUT  0x8,R9
	OUT  0x8,R8
	OUT  0x8,R11
	OUT  0x8,R10
	OUT  0x8,R5
	OUT  0x8,R4
	OUT  0x8,R7
	OUT  0x8,R6
	OUT  0x8,R9
	OUT  0x8,R8
	OUT  0x8,R11
	OUT  0x8,R10
	OUT  0x8,R5
	OUT  0x8,R4
	OUT  0x8,R7
	OUT  0x8,R6
	OUT  0x8,R9
	OUT  0x8,R8
	OUT  0x8,R11
	OUT  0x8,R10
	OUT  0x8,R5
	OUT  0x8,R4
	OUT  0x8,R7
	OUT  0x8,R6
	OUT  0x8,R9
	OUT  0x8,R8
	OUT  0x8,R11
	OUT  0x8,R10
	OUT  0x8,R5
	OUT  0x8,R4
	OUT  0x8,R7
	OUT  0x8,R6
	OUT  0x8,R9
	OUT  0x8,R8
	OUT  0x8,R11
	OUT  0x8,R10
	OUT  0x8,R5
	OUT  0x8,R4
	OUT  0x8,R7
	OUT  0x8,R6
	OUT  0x8,R9
	OUT  0x8,R8
	OUT  0x8,R11
	OUT  0x8,R10
	OUT  0x8,R5
	OUT  0x8,R4
	OUT  0x8,R7
	OUT  0x8,R6
	OUT  0x8,R9
	OUT  0x8,R8
	OUT  0x8,R11
	OUT  0x8,R10
	OUT  0x8,R5
	OUT  0x8,R4
	OUT  0x8,R7
	OUT  0x8,R6
	OUT  0x8,R9
	OUT  0x8,R8
	OUT  0x8,R11
	OUT  0x8,R10
	OUT  0x8,R5
	OUT  0x8,R4
	OUT  0x8,R7
	OUT  0x8,R6
	OUT  0x8,R9
	OUT  0x8,R8
	OUT  0x8,R11
	OUT  0x8,R10
	OUT  0x8,R5
	OUT  0x8,R4
	OUT  0x8,R7
	OUT  0x8,R6
	OUT  0x8,R9
	OUT  0x8,R8
	OUT  0x8,R11
	OUT  0x8,R10
	OUT  0x8,R5
	OUT  0x8,R4
	OUT  0x8,R7
	OUT  0x8,R6
	OUT  0x8,R9
	OUT  0x8,R8
	OUT  0x8,R11
	OUT  0x8,R10
	OUT  0x8,R5
	OUT  0x8,R4
	OUT  0x8,R7
	OUT  0x8,R6
	OUT  0x8,R9
	OUT  0x8,R8
	OUT  0x8,R11
	OUT  0x8,R10
	OUT  0x8,R5
	OUT  0x8,R4
	OUT  0x8,R7
	OUT  0x8,R6
	OUT  0x8,R9
	OUT  0x8,R8
	OUT  0x8,R11
	OUT  0x8,R10
	OUT  0x8,R5
	OUT  0x8,R4
	OUT  0x8,R7
	OUT  0x8,R6
	OUT  0x8,R9
	OUT  0x8,R8
	OUT  0x8,R11
	OUT  0x8,R10
	OUT  0x8,R5
	OUT  0x8,R4
	OUT  0x8,R7
	OUT  0x8,R6
	OUT  0x8,R9
	OUT  0x8,R8
	OUT  0x8,R11
	OUT  0x8,R10
	OUT  0x8,R5
	OUT  0x8,R4
	OUT  0x8,R7
	OUT  0x8,R6
	OUT  0x8,R9
	OUT  0x8,R8
	OUT  0x8,R11
	OUT  0x8,R10
	OUT  0x8,R5
	OUT  0x8,R4
	OUT  0x8,R7
	OUT  0x8,R6
	OUT  0x8,R9
	OUT  0x8,R8
	OUT  0x8,R11
	OUT  0x8,R10
	OUT  0x8,R5
	OUT  0x8,R4
	OUT  0x8,R7
	OUT  0x8,R6
	OUT  0x8,R9
	OUT  0x8,R8
	OUT  0x8,R11
	OUT  0x8,R10
	OUT  0x8,R5
	OUT  0x8,R4
	OUT  0x8,R7
	OUT  0x8,R6
	OUT  0x8,R9
	OUT  0x8,R8
	OUT  0x8,R11
	OUT  0x8,R10
	OUT  0x8,R5
	OUT  0x8,R4
	OUT  0x8,R7
	OUT  0x8,R6
	OUT  0x8,R9
	OUT  0x8,R8
	OUT  0x8,R11
	OUT  0x8,R10
	OUT  0x8,R5
	OUT  0x8,R4
	OUT  0x8,R7
	OUT  0x8,R6
	OUT  0x8,R9
	OUT  0x8,R8
	OUT  0x8,R11
	OUT  0x8,R10
	OUT  0x8,R5
	OUT  0x8,R4
	OUT  0x8,R7
	OUT  0x8,R6
	OUT  0x8,R9
	OUT  0x8,R8
	OUT  0x8,R11
	OUT  0x8,R10
	OUT  0x8,R5
	OUT  0x8,R4
	OUT  0x8,R7
	OUT  0x8,R6
	OUT  0x8,R9
	OUT  0x8,R8
	OUT  0x8,R11
	OUT  0x8,R10
	OUT  0x8,R5
	OUT  0x8,R4
	OUT  0x8,R7
	OUT  0x8,R6
	OUT  0x8,R9
	OUT  0x8,R8
	OUT  0x8,R11
	OUT  0x8,R10
	OUT  0x8,R5
	OUT  0x8,R4
	OUT  0x8,R7
	OUT  0x8,R6
	OUT  0x8,R9
	OUT  0x8,R8
	OUT  0x8,R11
	OUT  0x8,R10
	OUT  0x8,R5
	OUT  0x8,R4
	OUT  0x8,R7
	OUT  0x8,R6
	OUT  0x8,R9
	OUT  0x8,R8
	OUT  0x8,R11
	OUT  0x8,R10
	OUT  0x8,R5
	OUT  0x8,R4
	OUT  0x8,R7
	OUT  0x8,R6
	OUT  0x8,R9
	OUT  0x8,R8
	OUT  0x8,R11
	OUT  0x8,R10
	OUT  0x8,R5
	OUT  0x8,R4
	OUT  0x8,R7
	OUT  0x8,R6
	OUT  0x8,R9
	OUT  0x8,R8
	OUT  0x8,R11
	OUT  0x8,R10
	OUT  0x8,R5
	OUT  0x8,R4
	OUT  0x8,R7
	OUT  0x8,R6
	OUT  0x8,R9
	OUT  0x8,R8
	OUT  0x8,R11
	OUT  0x8,R10
	OUT  0x8,R5
	OUT  0x8,R4
	OUT  0x8,R7
	OUT  0x8,R6
	OUT  0x8,R9
	OUT  0x8,R8
	OUT  0x8,R11
	OUT  0x8,R10
	OUT  0x8,R5
	OUT  0x8,R4
	OUT  0x8,R7
	OUT  0x8,R6
	OUT  0x8,R9
	OUT  0x8,R8
	OUT  0x8,R11
	OUT  0x8,R10
	OUT  0x8,R5
	OUT  0x8,R4
	OUT  0x8,R7
	OUT  0x8,R6
	OUT  0x8,R9
	OUT  0x8,R8
	OUT  0x8,R11
	OUT  0x8,R10
	OUT  0x8,R5
	OUT  0x8,R4
	OUT  0x8,R7
	OUT  0x8,R6
	OUT  0x8,R9
	OUT  0x8,R8
	OUT  0x8,R11
	OUT  0x8,R10
	OUT  0x8,R5
	OUT  0x8,R4
	OUT  0x8,R7
	OUT  0x8,R6
	OUT  0x8,R9
	OUT  0x8,R8
	OUT  0x8,R11
	OUT  0x8,R10
	OUT  0x8,R5
	OUT  0x8,R4
	OUT  0x8,R7
	OUT  0x8,R6
	OUT  0x8,R9
	OUT  0x8,R8
	OUT  0x8,R11
	OUT  0x8,R10
	OUT  0x8,R5
	OUT  0x8,R4
	OUT  0x8,R7
	OUT  0x8,R6
	OUT  0x8,R9
	OUT  0x8,R8
	OUT  0x8,R11
	OUT  0x8,R10
	OUT  0x8,R5
	OUT  0x8,R4
	OUT  0x8,R7
	OUT  0x8,R6
	OUT  0x8,R9
	OUT  0x8,R8
	OUT  0x8,R11
	OUT  0x8,R10
	OUT  0x8,R5
	OUT  0x8,R4
	OUT  0x8,R7
	OUT  0x8,R6
	OUT  0x8,R9
	OUT  0x8,R8
	OUT  0x8,R11
	OUT  0x8,R10
	OUT  0x8,R5
	OUT  0x8,R4
	OUT  0x8,R7
	OUT  0x8,R6
	OUT  0x8,R9
	OUT  0x8,R8
	OUT  0x8,R11
	OUT  0x8,R10
	OUT  0x8,R5
	OUT  0x8,R4
	OUT  0x8,R7
	OUT  0x8,R6
	OUT  0x8,R9
	OUT  0x8,R8
	OUT  0x8,R11
	OUT  0x8,R10
	OUT  0x8,R5
	OUT  0x8,R4
	OUT  0x8,R7
	OUT  0x8,R6
	OUT  0x8,R9
	OUT  0x8,R8
	OUT  0x8,R11
	OUT  0x8,R10
	OUT  0x8,R5
	OUT  0x8,R4
	OUT  0x8,R7
	OUT  0x8,R6
	OUT  0x8,R9
	OUT  0x8,R8
	OUT  0x8,R11
	OUT  0x8,R10
	OUT  0x8,R5
	OUT  0x8,R4
	OUT  0x8,R7
	OUT  0x8,R6
	OUT  0x8,R9
	OUT  0x8,R8
	OUT  0x8,R11
	OUT  0x8,R10
	OUT  0x8,R5
	OUT  0x8,R4
	OUT  0x8,R7
	OUT  0x8,R6
	OUT  0x8,R9
	OUT  0x8,R8
	OUT  0x8,R11
	OUT  0x8,R10
	OUT  0x8,R5
	OUT  0x8,R4
	OUT  0x8,R7
	OUT  0x8,R6
	OUT  0x8,R9
	OUT  0x8,R8
	OUT  0x8,R11
	OUT  0x8,R10
	OUT  0x8,R5
	OUT  0x8,R4
	OUT  0x8,R7
	OUT  0x8,R6
	OUT  0x8,R9
	OUT  0x8,R8
	OUT  0x8,R11
	OUT  0x8,R10
	OUT  0x8,R5
	OUT  0x8,R4
	OUT  0x8,R7
	OUT  0x8,R6
	OUT  0x8,R9
	OUT  0x8,R8
	OUT  0x8,R11
	OUT  0x8,R10
	OUT  0x8,R5
	OUT  0x8,R4
	OUT  0x8,R7
	OUT  0x8,R6
	OUT  0x8,R9
	OUT  0x8,R8
	OUT  0x8,R11
	OUT  0x8,R10
	OUT  0x8,R5
	OUT  0x8,R4
	OUT  0x8,R7
	OUT  0x8,R6
	OUT  0x8,R9
	OUT  0x8,R8
	OUT  0x8,R11
	OUT  0x8,R10
	OUT  0x8,R5
	OUT  0x8,R4
	OUT  0x8,R7
	OUT  0x8,R6
	OUT  0x8,R9
	OUT  0x8,R8
	OUT  0x8,R11
	OUT  0x8,R10
	OUT  0x8,R5
	OUT  0x8,R4
	OUT  0x8,R7
	OUT  0x8,R6
	OUT  0x8,R9
	OUT  0x8,R8
	OUT  0x8,R11
	OUT  0x8,R10
	OUT  0x8,R5
	OUT  0x8,R4
	OUT  0x8,R7
	OUT  0x8,R6
	OUT  0x8,R9
	OUT  0x8,R8
	OUT  0x8,R11
	OUT  0x8,R10
	OUT  0x8,R5
	OUT  0x8,R4
	OUT  0x8,R7
	OUT  0x8,R6
	OUT  0x8,R9
	OUT  0x8,R8
	OUT  0x8,R11
	OUT  0x8,R10
	OUT  0x8,R5
	OUT  0x8,R4
	OUT  0x8,R7
	OUT  0x8,R6
	OUT  0x8,R9
	OUT  0x8,R8
	OUT  0x8,R11
	OUT  0x8,R10
	OUT  0x8,R5
	OUT  0x8,R4
	OUT  0x8,R7
	OUT  0x8,R6
	OUT  0x8,R9
	OUT  0x8,R8
	OUT  0x8,R11
	OUT  0x8,R10
	OUT  0x8,R5
	OUT  0x8,R4
	OUT  0x8,R7
	OUT  0x8,R6
	OUT  0x8,R9
	OUT  0x8,R8
	OUT  0x8,R11
	OUT  0x8,R10
	OUT  0x8,R5
	OUT  0x8,R4
	OUT  0x8,R7
	OUT  0x8,R6
	OUT  0x8,R9
	OUT  0x8,R8
	OUT  0x8,R11
	OUT  0x8,R10
	OUT  0x8,R5
	OUT  0x8,R4
	OUT  0x8,R7
	OUT  0x8,R6
	OUT  0x8,R9
	OUT  0x8,R8
	OUT  0x8,R11
	OUT  0x8,R10
	OUT  0x8,R5
	OUT  0x8,R4
	OUT  0x8,R7
	OUT  0x8,R6
	OUT  0x8,R9
	OUT  0x8,R8
	OUT  0x8,R11
	OUT  0x8,R10
	OUT  0x8,R5
	OUT  0x8,R4
	OUT  0x8,R7
	OUT  0x8,R6
	OUT  0x8,R9
	OUT  0x8,R8
	OUT  0x8,R11
	OUT  0x8,R10
	OUT  0x8,R5
	OUT  0x8,R4
	OUT  0x8,R7
	OUT  0x8,R6
	OUT  0x8,R9
	OUT  0x8,R8
	OUT  0x8,R11
	OUT  0x8,R10
	OUT  0x8,R5
	OUT  0x8,R4
	OUT  0x8,R7
	OUT  0x8,R6
	OUT  0x8,R9
	OUT  0x8,R8
	OUT  0x8,R11
	OUT  0x8,R10
	OUT  0x8,R5
	OUT  0x8,R4
	OUT  0x8,R7
	OUT  0x8,R6
	OUT  0x8,R9
	OUT  0x8,R8
	OUT  0x8,R11
	OUT  0x8,R10
	OUT  0x8,R5
	OUT  0x8,R4
	OUT  0x8,R7
	OUT  0x8,R6
	OUT  0x8,R9
	OUT  0x8,R8
	OUT  0x8,R11
	OUT  0x8,R10
	OUT  0x8,R5
	OUT  0x8,R4
	OUT  0x8,R7
	OUT  0x8,R6
	OUT  0x8,R9
	OUT  0x8,R8
	OUT  0x8,R11
	OUT  0x8,R10
	OUT  0x8,R5
	OUT  0x8,R4
	OUT  0x8,R7
	OUT  0x8,R6
	OUT  0x8,R9
	OUT  0x8,R8
	OUT  0x8,R11
	OUT  0x8,R10
	OUT  0x8,R5
	OUT  0x8,R4
	OUT  0x8,R7
	OUT  0x8,R6
	OUT  0x8,R9
	OUT  0x8,R8
	OUT  0x8,R11
	OUT  0x8,R10
	OUT  0x8,R5
	OUT  0x8,R4
	OUT  0x8,R7
	OUT  0x8,R6
	OUT  0x8,R9
	OUT  0x8,R8
	OUT  0x8,R11
	OUT  0x8,R10
	OUT  0x8,R5
	OUT  0x8,R4
	OUT  0x8,R7
	OUT  0x8,R6
	OUT  0x8,R9
	OUT  0x8,R8
	OUT  0x8,R11
	OUT  0x8,R10
	OUT  0x8,R5
	OUT  0x8,R4
	OUT  0x8,R7
	OUT  0x8,R6
	OUT  0x8,R9
	OUT  0x8,R8
	OUT  0x8,R11
	OUT  0x8,R10
	OUT  0x8,R5
	OUT  0x8,R4
	OUT  0x8,R7
	OUT  0x8,R6
	OUT  0x8,R9
	OUT  0x8,R8
	OUT  0x8,R11
	OUT  0x8,R10
	OUT  0x8,R5
	OUT  0x8,R4
	OUT  0x8,R7
	OUT  0x8,R6
	OUT  0x8,R9
	OUT  0x8,R8
	OUT  0x8,R11
	OUT  0x8,R10
	OUT  0x8,R5
	OUT  0x8,R4
	OUT  0x8,R7
	OUT  0x8,R6
	OUT  0x8,R9
	OUT  0x8,R8
	OUT  0x8,R11
	OUT  0x8,R10
	OUT  0x8,R5
	OUT  0x8,R4
	OUT  0x8,R7
	OUT  0x8,R6
	OUT  0x8,R9
	OUT  0x8,R8
	OUT  0x8,R11
	OUT  0x8,R10
	OUT  0x8,R5
	OUT  0x8,R4
	OUT  0x8,R7
	OUT  0x8,R6
	OUT  0x8,R9
	OUT  0x8,R8
	OUT  0x8,R11
	OUT  0x8,R10
	OUT  0x8,R5
	OUT  0x8,R4
	OUT  0x8,R7
	OUT  0x8,R6
	OUT  0x8,R9
	OUT  0x8,R8
	OUT  0x8,R11
	OUT  0x8,R10
	OUT  0x8,R5
	OUT  0x8,R4
	OUT  0x8,R7
	OUT  0x8,R6
	OUT  0x8,R9
	OUT  0x8,R8
	OUT  0x8,R11
	OUT  0x8,R10
	OUT  0x8,R5
	OUT  0x8,R4
	OUT  0x8,R7
	OUT  0x8,R6
	OUT  0x8,R9
	OUT  0x8,R8
	OUT  0x8,R11
	OUT  0x8,R10
	OUT  0x8,R5
	OUT  0x8,R4
	OUT  0x8,R7
	OUT  0x8,R6
	OUT  0x8,R9
	OUT  0x8,R8
	OUT  0x8,R11
	OUT  0x8,R10
	OUT  0x8,R5
	OUT  0x8,R4
	OUT  0x8,R7
	OUT  0x8,R6
	OUT  0x8,R9
	OUT  0x8,R8
	OUT  0x8,R11
	OUT  0x8,R10
	OUT  0x8,R5
	OUT  0x8,R4
	OUT  0x8,R7
	OUT  0x8,R6
	OUT  0x8,R9
	OUT  0x8,R8
	OUT  0x8,R11
	OUT  0x8,R10
	OUT  0x8,R5
	OUT  0x8,R4
	OUT  0x8,R7
	OUT  0x8,R6
	OUT  0x8,R9
	OUT  0x8,R8
	OUT  0x8,R11
	OUT  0x8,R10
	OUT  0x8,R5
	OUT  0x8,R4
	OUT  0x8,R7
	OUT  0x8,R6
	OUT  0x8,R9
	OUT  0x8,R8
	OUT  0x8,R11
	OUT  0x8,R10
	OUT  0x8,R5
	OUT  0x8,R4
	OUT  0x8,R7
	OUT  0x8,R6
	OUT  0x8,R9
	OUT  0x8,R8
	OUT  0x8,R11
	OUT  0x8,R10
	OUT  0x8,R5
	OUT  0x8,R4
	OUT  0x8,R7
	OUT  0x8,R6
	OUT  0x8,R9
	OUT  0x8,R8
	OUT  0x8,R11
	OUT  0x8,R10
	OUT  0x8,R5
	OUT  0x8,R4
	OUT  0x8,R7
	OUT  0x8,R6
	OUT  0x8,R9
	OUT  0x8,R8
	OUT  0x8,R11
	OUT  0x8,R10
	OUT  0x8,R5
	OUT  0x8,R4
	OUT  0x8,R7
	OUT  0x8,R6
	OUT  0x8,R9
	OUT  0x8,R8
	OUT  0x8,R11
	OUT  0x8,R10
	OUT  0x8,R5
	OUT  0x8,R4
	OUT  0x8,R7
	OUT  0x8,R6
	OUT  0x8,R9
	OUT  0x8,R8
	OUT  0x8,R11
	OUT  0x8,R10
	OUT  0x8,R5
	OUT  0x8,R4
	OUT  0x8,R7
	OUT  0x8,R6
	OUT  0x8,R9
	OUT  0x8,R8
	OUT  0x8,R11
	OUT  0x8,R10
	OUT  0x8,R5
	OUT  0x8,R4
	OUT  0x8,R7
	OUT  0x8,R6
	OUT  0x8,R9
	OUT  0x8,R8
	OUT  0x8,R11
	OUT  0x8,R10
	OUT  0x8,R5
	OUT  0x8,R4
	OUT  0x8,R7
	OUT  0x8,R6
	OUT  0x8,R9
	OUT  0x8,R8
	OUT  0x8,R11
	OUT  0x8,R10
	OUT  0x8,R5
	OUT  0x8,R4
	OUT  0x8,R7
	OUT  0x8,R6
	OUT  0x8,R9
	OUT  0x8,R8
	OUT  0x8,R11
	OUT  0x8,R10
	OUT  0x8,R5
	OUT  0x8,R4
	OUT  0x8,R7
	OUT  0x8,R6
	OUT  0x8,R9
	OUT  0x8,R8
	OUT  0x8,R11
	OUT  0x8,R10
	OUT  0x8,R5
	OUT  0x8,R4
	OUT  0x8,R7
	OUT  0x8,R6
	OUT  0x8,R9
	OUT  0x8,R8
	OUT  0x8,R11
	OUT  0x8,R10
	OUT  0x8,R5
	OUT  0x8,R4
	OUT  0x8,R7
	OUT  0x8,R6
	OUT  0x8,R9
	OUT  0x8,R8
	OUT  0x8,R11
	OUT  0x8,R10
	OUT  0x8,R5
	OUT  0x8,R4
	OUT  0x8,R7
	OUT  0x8,R6
	OUT  0x8,R9
	OUT  0x8,R8
	OUT  0x8,R11
	OUT  0x8,R10
	OUT  0x8,R5
	OUT  0x8,R4
	OUT  0x8,R7
	OUT  0x8,R6
	OUT  0x8,R9
	OUT  0x8,R8
	OUT  0x8,R11
	OUT  0x8,R10
	OUT  0x8,R5
	OUT  0x8,R4
	OUT  0x8,R7
	OUT  0x8,R6
	OUT  0x8,R9
	OUT  0x8,R8
	OUT  0x8,R11
	OUT  0x8,R10
	OUT  0x8,R5
	OUT  0x8,R4
	OUT  0x8,R7
	OUT  0x8,R6
	OUT  0x8,R9
	OUT  0x8,R8
	OUT  0x8,R11
	OUT  0x8,R10
	OUT  0x8,R5
	OUT  0x8,R4
	OUT  0x8,R7
	OUT  0x8,R6
	OUT  0x8,R9
	OUT  0x8,R8
	OUT  0x8,R11
	OUT  0x8,R10
	OUT  0x8,R5
	OUT  0x8,R4
	OUT  0x8,R7
	OUT  0x8,R6
	OUT  0x8,R9
	OUT  0x8,R8
	OUT  0x8,R11
	OUT  0x8,R10
	OUT  0x8,R5
	OUT  0x8,R4
	OUT  0x8,R7
	OUT  0x8,R6
	OUT  0x8,R9
	OUT  0x8,R8
	OUT  0x8,R11
	OUT  0x8,R10
	OUT  0x8,R5
	OUT  0x8,R4
	OUT  0x8,R7
	OUT  0x8,R6
	OUT  0x8,R9
	OUT  0x8,R8
	OUT  0x8,R11
	OUT  0x8,R10
	OUT  0x8,R5
	OUT  0x8,R4
	OUT  0x8,R7
	OUT  0x8,R6
	OUT  0x8,R9
	OUT  0x8,R8
	OUT  0x8,R11
	OUT  0x8,R10
	OUT  0x8,R5
	OUT  0x8,R4
	OUT  0x8,R7
	OUT  0x8,R6
	OUT  0x8,R9
	OUT  0x8,R8
	OUT  0x8,R11
	OUT  0x8,R10
	OUT  0x8,R5
	OUT  0x8,R4
	OUT  0x8,R7
	OUT  0x8,R6
	OUT  0x8,R9
	OUT  0x8,R8
	OUT  0x8,R11
	OUT  0x8,R10
	OUT  0x8,R5
	OUT  0x8,R4
	OUT  0x8,R7
	OUT  0x8,R6
	OUT  0x8,R9
	OUT  0x8,R8
	OUT  0x8,R11
	OUT  0x8,R10
	OUT  0x8,R5
	OUT  0x8,R4
	OUT  0x8,R7
	OUT  0x8,R6
	OUT  0x8,R9
	OUT  0x8,R8
	OUT  0x8,R11
	OUT  0x8,R10
	OUT  0x8,R5
	OUT  0x8,R4
	OUT  0x8,R7
	OUT  0x8,R6
	OUT  0x8,R9
	OUT  0x8,R8
	OUT  0x8,R11
	OUT  0x8,R10
	OUT  0x8,R5
	OUT  0x8,R4
	OUT  0x8,R7
	OUT  0x8,R6
	OUT  0x8,R9
	OUT  0x8,R8
	OUT  0x8,R11
	OUT  0x8,R10
	OUT  0x8,R5
	OUT  0x8,R4
	OUT  0x8,R7
	OUT  0x8,R6
	OUT  0x8,R9
	OUT  0x8,R8
	OUT  0x8,R11
	OUT  0x8,R10
	OUT  0x8,R5
	OUT  0x8,R4
	OUT  0x8,R7
	OUT  0x8,R6
	OUT  0x8,R9
	OUT  0x8,R8
	OUT  0x8,R11
	OUT  0x8,R10
	OUT  0x8,R5
	OUT  0x8,R4
	OUT  0x8,R7
	OUT  0x8,R6
	OUT  0x8,R9
	OUT  0x8,R8
	OUT  0x8,R11
	OUT  0x8,R10
	OUT  0x8,R5
	OUT  0x8,R4
	OUT  0x8,R7
	OUT  0x8,R6
	OUT  0x8,R9
	OUT  0x8,R8
	OUT  0x8,R11
	OUT  0x8,R10
	OUT  0x8,R5
	OUT  0x8,R4
	OUT  0x8,R7
	OUT  0x8,R6
	OUT  0x8,R9
	OUT  0x8,R8
	OUT  0x8,R11
	OUT  0x8,R10
	OUT  0x8,R5
	OUT  0x8,R4
	OUT  0x8,R7
	OUT  0x8,R6
	OUT  0x8,R9
	OUT  0x8,R8
	OUT  0x8,R11
	OUT  0x8,R10
	OUT  0x8,R5
	OUT  0x8,R4
	OUT  0x8,R7
	OUT  0x8,R6
	OUT  0x8,R9
	OUT  0x8,R8
	OUT  0x8,R11
	OUT  0x8,R10
	OUT  0x8,R5
	OUT  0x8,R4
	OUT  0x8,R7
	OUT  0x8,R6
	OUT  0x8,R9
	OUT  0x8,R8
	OUT  0x8,R11
	OUT  0x8,R10
	OUT  0x8,R5
	OUT  0x8,R4
	OUT  0x8,R7
	OUT  0x8,R6
	OUT  0x8,R9
	OUT  0x8,R8
	OUT  0x8,R11
	OUT  0x8,R10
	OUT  0x8,R5
	OUT  0x8,R4
	OUT  0x8,R7
	OUT  0x8,R6
	OUT  0x8,R9
	OUT  0x8,R8
	OUT  0x8,R11
	OUT  0x8,R10
	OUT  0x8,R5
	OUT  0x8,R4
	OUT  0x8,R7
	OUT  0x8,R6
	OUT  0x8,R9
	OUT  0x8,R8
	OUT  0x8,R11
	OUT  0x8,R10
	OUT  0x8,R5
	OUT  0x8,R4
	OUT  0x8,R7
	OUT  0x8,R6
	OUT  0x8,R9
	OUT  0x8,R8
	OUT  0x8,R11
	OUT  0x8,R10
	OUT  0x8,R5
	OUT  0x8,R4
	OUT  0x8,R7
	OUT  0x8,R6
	OUT  0x8,R9
	OUT  0x8,R8
	OUT  0x8,R11
	OUT  0x8,R10
	OUT  0x8,R5
	OUT  0x8,R4
	OUT  0x8,R7
	OUT  0x8,R6
	OUT  0x8,R9
	OUT  0x8,R8
	OUT  0x8,R11
	OUT  0x8,R10
	OUT  0x8,R5
	OUT  0x8,R4
	OUT  0x8,R7
	OUT  0x8,R6
	OUT  0x8,R9
	OUT  0x8,R8
	OUT  0x8,R11
	OUT  0x8,R10
	OUT  0x8,R5
	OUT  0x8,R4
	OUT  0x8,R7
	OUT  0x8,R6
	OUT  0x8,R9
	OUT  0x8,R8
	OUT  0x8,R11
	OUT  0x8,R10
	OUT  0x8,R5
	OUT  0x8,R4
	OUT  0x8,R7
	OUT  0x8,R6
	OUT  0x8,R9
	OUT  0x8,R8
	OUT  0x8,R11
	OUT  0x8,R10
	OUT  0x8,R5
	OUT  0x8,R4
	OUT  0x8,R7
	OUT  0x8,R6
	OUT  0x8,R9
	OUT  0x8,R8
	OUT  0x8,R11
	OUT  0x8,R10
	OUT  0x8,R5
	OUT  0x8,R4
	OUT  0x8,R7
	OUT  0x8,R6
	OUT  0x8,R9
	OUT  0x8,R8
	OUT  0x8,R11
	OUT  0x8,R10
	OUT  0x8,R5
	OUT  0x8,R4
	OUT  0x8,R7
	OUT  0x8,R6
	OUT  0x8,R9
	OUT  0x8,R8
	OUT  0x8,R11
	OUT  0x8,R10
	OUT  0x8,R5
	OUT  0x8,R4
	OUT  0x8,R7
	OUT  0x8,R6
	OUT  0x8,R9
	OUT  0x8,R8
	OUT  0x8,R11
	OUT  0x8,R10
	OUT  0x8,R5
	OUT  0x8,R4
	OUT  0x8,R7
	OUT  0x8,R6
	OUT  0x8,R9
	OUT  0x8,R8
	OUT  0x8,R11
	OUT  0x8,R10
	OUT  0x8,R5
	OUT  0x8,R4
	OUT  0x8,R7
	OUT  0x8,R6
	OUT  0x8,R9
	OUT  0x8,R8
	OUT  0x8,R11
	OUT  0x8,R10
	OUT  0x8,R5
	OUT  0x8,R4
	OUT  0x8,R7
	OUT  0x8,R6
	OUT  0x8,R9
	OUT  0x8,R8
	OUT  0x8,R11
	OUT  0x8,R10
	OUT  0x8,R5
	OUT  0x8,R4
	OUT  0x8,R7
	OUT  0x8,R6
	OUT  0x8,R9
	OUT  0x8,R8
	OUT  0x8,R11
	OUT  0x8,R10
	OUT  0x8,R5
	OUT  0x8,R4
	OUT  0x8,R7
	OUT  0x8,R6
	OUT  0x8,R9
	OUT  0x8,R8
	OUT  0x8,R11
	OUT  0x8,R10
	OUT  0x8,R5
	OUT  0x8,R4
	OUT  0x8,R7
	OUT  0x8,R6
	OUT  0x8,R9
	OUT  0x8,R8
	OUT  0x8,R11
	OUT  0x8,R10
	OUT  0x8,R5
	OUT  0x8,R4
	OUT  0x8,R7
	OUT  0x8,R6
	OUT  0x8,R9
	OUT  0x8,R8
	OUT  0x8,R11
	OUT  0x8,R10
	OUT  0x8,R5
	OUT  0x8,R4
	OUT  0x8,R7
	OUT  0x8,R6
	OUT  0x8,R9
	OUT  0x8,R8
	OUT  0x8,R11
	OUT  0x8,R10
	OUT  0x8,R5
	OUT  0x8,R4
	OUT  0x8,R7
	OUT  0x8,R6
	OUT  0x8,R9
	OUT  0x8,R8
	OUT  0x8,R11
	OUT  0x8,R10
	OUT  0x8,R5
	OUT  0x8,R4
	OUT  0x8,R7
	OUT  0x8,R6
	OUT  0x8,R9
	OUT  0x8,R8
	OUT  0x8,R11
	OUT  0x8,R10
	OUT  0x8,R5
	OUT  0x8,R4
	OUT  0x8,R7
	OUT  0x8,R6
	OUT  0x8,R9
	OUT  0x8,R8
	OUT  0x8,R11
	OUT  0x8,R10
	OUT  0x8,R5
	OUT  0x8,R4
	OUT  0x8,R7
	OUT  0x8,R6
	OUT  0x8,R9
	OUT  0x8,R8
	OUT  0x8,R11
	OUT  0x8,R10
	OUT  0x8,R5
	OUT  0x8,R4
	OUT  0x8,R7
	OUT  0x8,R6
	OUT  0x8,R9
	OUT  0x8,R8
	OUT  0x8,R11
	OUT  0x8,R10
	OUT  0x8,R5
	OUT  0x8,R4
	OUT  0x8,R7
	OUT  0x8,R6
	OUT  0x8,R9
	OUT  0x8,R8
	OUT  0x8,R11
	OUT  0x8,R10
	OUT  0x8,R5
	OUT  0x8,R4
	OUT  0x8,R7
	OUT  0x8,R6
	OUT  0x8,R9
	OUT  0x8,R8
	OUT  0x8,R11
	OUT  0x8,R10
	OUT  0x8,R5
	OUT  0x8,R4
	OUT  0x8,R7
	OUT  0x8,R6
	OUT  0x8,R9
	OUT  0x8,R8
	OUT  0x8,R11
	OUT  0x8,R10
	OUT  0x8,R5
	OUT  0x8,R4
	OUT  0x8,R7
	OUT  0x8,R6
	OUT  0x8,R9
	OUT  0x8,R8
	OUT  0x8,R11
	OUT  0x8,R10
	OUT  0x8,R5
	OUT  0x8,R4
	OUT  0x8,R7
	OUT  0x8,R6
	OUT  0x8,R9
	OUT  0x8,R8
	OUT  0x8,R11
	OUT  0x8,R10
	OUT  0x8,R5
	OUT  0x8,R4
	OUT  0x8,R7
	OUT  0x8,R6
	OUT  0x8,R9
	OUT  0x8,R8
	OUT  0x8,R11
	OUT  0x8,R10
	OUT  0x8,R5
	OUT  0x8,R4
	OUT  0x8,R7
	OUT  0x8,R6
	OUT  0x8,R9
	OUT  0x8,R8
	OUT  0x8,R11
	OUT  0x8,R10
	OUT  0x8,R5
	OUT  0x8,R4
	OUT  0x8,R7
	OUT  0x8,R6
	OUT  0x8,R9
	OUT  0x8,R8
	OUT  0x8,R11
	OUT  0x8,R10
	OUT  0x8,R5
	OUT  0x8,R4
	OUT  0x8,R7
	OUT  0x8,R6
	OUT  0x8,R9
	OUT  0x8,R8
	OUT  0x8,R11
	OUT  0x8,R10
	OUT  0x8,R5
	OUT  0x8,R4
	OUT  0x8,R7
	OUT  0x8,R6
	OUT  0x8,R9
	OUT  0x8,R8
	OUT  0x8,R11
	OUT  0x8,R10
	OUT  0x8,R5
	OUT  0x8,R4
	OUT  0x8,R7
	OUT  0x8,R6
	OUT  0x8,R9
	OUT  0x8,R8
	OUT  0x8,R11
	OUT  0x8,R10
	OUT  0x8,R5
	OUT  0x8,R4
	OUT  0x8,R7
	OUT  0x8,R6
	OUT  0x8,R9
	OUT  0x8,R8
	OUT  0x8,R11
	OUT  0x8,R10
	OUT  0x8,R5
	OUT  0x8,R4
	OUT  0x8,R7
	OUT  0x8,R6
	OUT  0x8,R9
	OUT  0x8,R8
	OUT  0x8,R11
	OUT  0x8,R10
	OUT  0x8,R5
	OUT  0x8,R4
	OUT  0x8,R7
	OUT  0x8,R6
	OUT  0x8,R9
	OUT  0x8,R8
	OUT  0x8,R11
	OUT  0x8,R10
	OUT  0x8,R5
	OUT  0x8,R4
	OUT  0x8,R7
	OUT  0x8,R6
	OUT  0x8,R9
	OUT  0x8,R8
	OUT  0x8,R11
	OUT  0x8,R10
	OUT  0x8,R5
	OUT  0x8,R4
	OUT  0x8,R7
	OUT  0x8,R6
	OUT  0x8,R9
	OUT  0x8,R8
	OUT  0x8,R11
	OUT  0x8,R10
; 0000 0221         PORTC = k8;
	OUT  0x8,R13
; 0000 0222 
; 0000 0223         k0 = 0x14;
	LDI  R30,LOW(20)
	MOV  R5,R30
; 0000 0224         //выключен s2, нет импульсов записи
; 0000 0225         k1 = 0x28;
	LDI  R30,LOW(40)
	MOV  R4,R30
; 0000 0226         k2 = 0x14;
	LDI  R30,LOW(20)
	MOV  R7,R30
; 0000 0227         k3 = 0x28;
	LDI  R30,LOW(40)
	MOV  R6,R30
; 0000 0228         k4 = 0x14;
	LDI  R30,LOW(20)
	MOV  R9,R30
; 0000 0229         k5 = 0x28;
	LDI  R30,LOW(40)
	MOV  R8,R30
; 0000 022A         k6 = 0x14;
	LDI  R30,LOW(20)
	MOV  R11,R30
; 0000 022B         k7 = 0x28;
	LDI  R30,LOW(40)
	MOV  R10,R30
; 0000 022C         pixel40
	OUT  0x8,R5
	OUT  0x8,R4
	OUT  0x8,R7
	OUT  0x8,R6
	OUT  0x8,R9
	OUT  0x8,R8
	OUT  0x8,R11
	OUT  0x8,R10
	OUT  0x8,R5
	OUT  0x8,R4
	OUT  0x8,R7
	OUT  0x8,R6
	OUT  0x8,R9
	OUT  0x8,R8
	OUT  0x8,R11
	OUT  0x8,R10
	OUT  0x8,R5
	OUT  0x8,R4
	OUT  0x8,R7
	OUT  0x8,R6
	OUT  0x8,R9
	OUT  0x8,R8
	OUT  0x8,R11
	OUT  0x8,R10
	OUT  0x8,R5
	OUT  0x8,R4
	OUT  0x8,R7
	OUT  0x8,R6
	OUT  0x8,R9
	OUT  0x8,R8
	OUT  0x8,R11
	OUT  0x8,R10
	OUT  0x8,R5
	OUT  0x8,R4
	OUT  0x8,R7
	OUT  0x8,R6
	OUT  0x8,R9
	OUT  0x8,R8
	OUT  0x8,R11
	OUT  0x8,R10
	OUT  0x8,R5
	OUT  0x8,R4
	OUT  0x8,R7
	OUT  0x8,R6
	OUT  0x8,R9
	OUT  0x8,R8
	OUT  0x8,R11
	OUT  0x8,R10
	OUT  0x8,R5
	OUT  0x8,R4
	OUT  0x8,R7
	OUT  0x8,R6
	OUT  0x8,R9
	OUT  0x8,R8
	OUT  0x8,R11
	OUT  0x8,R10
	OUT  0x8,R5
	OUT  0x8,R4
	OUT  0x8,R7
	OUT  0x8,R6
	OUT  0x8,R9
	OUT  0x8,R8
	OUT  0x8,R11
	OUT  0x8,R10
	OUT  0x8,R5
	OUT  0x8,R4
	OUT  0x8,R7
	OUT  0x8,R6
	OUT  0x8,R9
	OUT  0x8,R8
	OUT  0x8,R11
	OUT  0x8,R10
	OUT  0x8,R5
	OUT  0x8,R4
	OUT  0x8,R7
	OUT  0x8,R6
	OUT  0x8,R9
	OUT  0x8,R8
	OUT  0x8,R11
	OUT  0x8,R10
; 0000 022D         pixel40
	OUT  0x8,R5
	OUT  0x8,R4
	OUT  0x8,R7
	OUT  0x8,R6
	OUT  0x8,R9
	OUT  0x8,R8
	OUT  0x8,R11
	OUT  0x8,R10
	OUT  0x8,R5
	OUT  0x8,R4
	OUT  0x8,R7
	OUT  0x8,R6
	OUT  0x8,R9
	OUT  0x8,R8
	OUT  0x8,R11
	OUT  0x8,R10
	OUT  0x8,R5
	OUT  0x8,R4
	OUT  0x8,R7
	OUT  0x8,R6
	OUT  0x8,R9
	OUT  0x8,R8
	OUT  0x8,R11
	OUT  0x8,R10
	OUT  0x8,R5
	OUT  0x8,R4
	OUT  0x8,R7
	OUT  0x8,R6
	OUT  0x8,R9
	OUT  0x8,R8
	OUT  0x8,R11
	OUT  0x8,R10
	OUT  0x8,R5
	OUT  0x8,R4
	OUT  0x8,R7
	OUT  0x8,R6
	OUT  0x8,R9
	OUT  0x8,R8
	OUT  0x8,R11
	OUT  0x8,R10
	OUT  0x8,R5
	OUT  0x8,R4
	OUT  0x8,R7
	OUT  0x8,R6
	OUT  0x8,R9
	OUT  0x8,R8
	OUT  0x8,R11
	OUT  0x8,R10
	OUT  0x8,R5
	OUT  0x8,R4
	OUT  0x8,R7
	OUT  0x8,R6
	OUT  0x8,R9
	OUT  0x8,R8
	OUT  0x8,R11
	OUT  0x8,R10
	OUT  0x8,R5
	OUT  0x8,R4
	OUT  0x8,R7
	OUT  0x8,R6
	OUT  0x8,R9
	OUT  0x8,R8
	OUT  0x8,R11
	OUT  0x8,R10
	OUT  0x8,R5
	OUT  0x8,R4
	OUT  0x8,R7
	OUT  0x8,R6
	OUT  0x8,R9
	OUT  0x8,R8
	OUT  0x8,R11
	OUT  0x8,R10
	OUT  0x8,R5
	OUT  0x8,R4
	OUT  0x8,R7
	OUT  0x8,R6
	OUT  0x8,R9
	OUT  0x8,R8
	OUT  0x8,R11
	OUT  0x8,R10
; 0000 022E         pixel4
	OUT  0x8,R5
	OUT  0x8,R4
	OUT  0x8,R7
	OUT  0x8,R6
	OUT  0x8,R9
	OUT  0x8,R8
	OUT  0x8,R11
	OUT  0x8,R10
; 0000 022F     }while (--y);
	MOVW R30,R16
	SBIW R30,1
	MOVW R16,R30
	BREQ _0x54
	JMP  _0x53
_0x54:
; 0000 0230 }
	RJMP _0x2000003
;
;void shift(void)
; 0000 0233 {
_shift:
; 0000 0234     PORTD = 0xcb;
	LDI  R30,LOW(203)
	OUT  0xB,R30
; 0000 0235     zad();
	RCALL _zad
; 0000 0236     PORTD = 0xdb;
	LDI  R30,LOW(219)
	OUT  0xB,R30
; 0000 0237     zad();
	RCALL _zad
; 0000 0238     PORTD = 0xda;
	LDI  R30,LOW(218)
	OUT  0xB,R30
; 0000 0239     zad();
	RCALL _zad
; 0000 023A     PORTD = 0xfa;
	LDI  R30,LOW(250)
	OUT  0xB,R30
; 0000 023B     zad();
	RCALL _zad
; 0000 023C     PORTD = 0xea;
	LDI  R30,LOW(234)
	RJMP _0x2000004
; 0000 023D     zad();
; 0000 023E     PORTD = 0xee;
; 0000 023F     zad();
; 0000 0240     PORTD = 0xce;
; 0000 0241     zad();
; 0000 0242     PORTD = 0xcf;
; 0000 0243     zad();
; 0000 0244 }
;
;void shift2(void)
; 0000 0247 {
_shift2:
; 0000 0248     shift();
	RCALL _shift
; 0000 0249 
; 0000 024A     PORTD = 0xc7;zad();
	LDI  R30,LOW(199)
	OUT  0xB,R30
	RCALL _zad
; 0000 024B     PORTD = 0xc7;zad();
	LDI  R30,LOW(199)
	OUT  0xB,R30
	RCALL _zad
; 0000 024C     PORTD = 0xc7;zad();
	LDI  R30,LOW(199)
	OUT  0xB,R30
	RCALL _zad
; 0000 024D     PORTD = 0xc7;zad();
	LDI  R30,LOW(199)
	OUT  0xB,R30
	RCALL _zad
; 0000 024E 
; 0000 024F     PORTD = 0xcb;zad();
	LDI  R30,LOW(203)
	OUT  0xB,R30
	RCALL _zad
; 0000 0250 
; 0000 0251     PORTD = 0xd9;zad();
	LDI  R30,LOW(217)
	OUT  0xB,R30
	RCALL _zad
; 0000 0252     PORTD = 0xd9;zad();
	LDI  R30,LOW(217)
	OUT  0xB,R30
	RCALL _zad
; 0000 0253     PORTD = 0xd9;zad();
	LDI  R30,LOW(217)
	OUT  0xB,R30
	RCALL _zad
; 0000 0254     PORTD = 0xd9;zad();
	LDI  R30,LOW(217)
	OUT  0xB,R30
	RCALL _zad
; 0000 0255 
; 0000 0256     PORTD = 0xdb;zad();
	LDI  R30,LOW(219)
	OUT  0xB,R30
	RCALL _zad
; 0000 0257 
; 0000 0258     PORTD = 0xfa;zad();
	LDI  R30,LOW(250)
	OUT  0xB,R30
	RCALL _zad
; 0000 0259     PORTD = 0xea;zad();
	LDI  R30,LOW(234)
	RJMP _0x2000004
; 0000 025A     PORTD = 0xee;zad();
; 0000 025B     PORTD = 0xce;zad();
; 0000 025C     PORTD = 0xcf;zad();
; 0000 025D }
;
;void shift3(void)
; 0000 0260 {
_shift3:
; 0000 0261     PORTD = 0xcb;zad();
	LDI  R30,LOW(203)
	OUT  0xB,R30
	RCALL _zad
; 0000 0262     PORTD = 0xdb;zad();
	LDI  R30,LOW(219)
	OUT  0xB,R30
	RCALL _zad
; 0000 0263     PORTD = 0x9a;zad();
	LDI  R30,LOW(154)
	OUT  0xB,R30
	RCALL _zad
; 0000 0264     PORTD = 0xba;zad();
	LDI  R30,LOW(186)
	OUT  0xB,R30
	RCALL _zad
; 0000 0265     PORTD = 0xaa;zad();
	LDI  R30,LOW(170)
_0x2000004:
	OUT  0xB,R30
	RCALL _zad
; 0000 0266     PORTD = 0xee;zad();
	LDI  R30,LOW(238)
	OUT  0xB,R30
	RCALL _zad
; 0000 0267     PORTD = 0xce;zad();
	LDI  R30,LOW(206)
	OUT  0xB,R30
	RCALL _zad
; 0000 0268     PORTD = 0xcf;zad();
	LDI  R30,LOW(207)
	OUT  0xB,R30
	RCALL _zad
; 0000 0269 }
	RET
;
;void zad()
; 0000 026C {
_zad:
; 0000 026D     uint8_t x;
; 0000 026E     x = 7;
	ST   -Y,R17
;	x -> R17
	LDI  R17,LOW(7)
; 0000 026F     do {
_0x58:
; 0000 0270 
; 0000 0271     } while(--x);
	SUBI R17,LOW(1)
	CPI  R17,0
	BRNE _0x58
; 0000 0272 }
	LD   R17,Y+
	RET
;
;void zad2(uint16_t expp)
; 0000 0275 {
_zad2:
; 0000 0276     uint16_t x, y;
; 0000 0277     for (y = 0; y < expp; y++)
	ST   -Y,R27
	ST   -Y,R26
	CALL __SAVELOCR4
;	expp -> Y+4
;	x -> R16,R17
;	y -> R18,R19
	__GETWRN 18,19,0
_0x5B:
	LDD  R30,Y+4
	LDD  R31,Y+4+1
	CP   R18,R30
	CPC  R19,R31
	BRSH _0x5C
; 0000 0278     {
; 0000 0279         x = 1347;
	__GETWRN 16,17,1347
; 0000 027A         do {
_0x5E:
; 0000 027B 
; 0000 027C         } while(--x);
	MOVW R30,R16
	SBIW R30,1
	MOVW R16,R30
	BRNE _0x5E
; 0000 027D     }
	__ADDWRN 18,19,1
	RJMP _0x5B
_0x5C:
; 0000 027E }
	CALL __LOADLOCR4
	RJMP _0x2000002
;
;void clearline()
; 0000 0281 // ќчистка горизонтального сдвига. ≈сли его не очистить,
; 0000 0282 // то накопленный в нем паразитный зар€д будет добавлен в первую строку изображени€}
; 0000 0283 {
_clearline:
; 0000 0284     uint16_t x;
; 0000 0285     uint8_t l0,l1;
; 0000 0286 
; 0000 0287     l0 = 0x14;
	CALL __SAVELOCR4
;	x -> R16,R17
;	l0 -> R19
;	l1 -> R18
	LDI  R19,LOW(20)
; 0000 0288     l1 = 0x20;
	LDI  R18,LOW(32)
; 0000 0289 
; 0000 028A     x = 1600;
	__GETWRN 16,17,1600
; 0000 028B     do
_0x61:
; 0000 028C     {
; 0000 028D         PORTC = l0;
	OUT  0x8,R19
; 0000 028E         PORTC = l1;
	OUT  0x8,R18
; 0000 028F         PORTC = l0;
	OUT  0x8,R19
; 0000 0290         PORTC = l1;
	OUT  0x8,R18
; 0000 0291         PORTC = l0;
	OUT  0x8,R19
; 0000 0292         PORTC = l1;
	OUT  0x8,R18
; 0000 0293         PORTC = l0;
	OUT  0x8,R19
; 0000 0294         PORTC = l1;
	OUT  0x8,R18
; 0000 0295     } while (--x);
	MOVW R30,R16
	SBIW R30,1
	MOVW R16,R30
	BRNE _0x61
; 0000 0296 }
	CALL __LOADLOCR4
	ADIW R28,4
	RET
;
;void clearframe(void)
; 0000 0299 // ќчистка сдвигового регистра. ≈сли его не очистить,
; 0000 029A // то накопленный в нем зар€д будет добавлен в изображение.
; 0000 029B // ќчищаетс€ весь регистр вместе с "темными" и неиспользуемыми строками.
; 0000 029C // ќпераци€ проводитс€ перед "сливом" изображени€ в сдвиговый регистр.}
; 0000 029D {
_clearframe:
; 0000 029E     uint16_t x;
; 0000 029F     x = 1012;
	ST   -Y,R17
	ST   -Y,R16
;	x -> R16,R17
	__GETWRN 16,17,1012
; 0000 02A0     do
_0x64:
; 0000 02A1     {
; 0000 02A2         shift();
	RCALL _shift
; 0000 02A3     } while (--x);
	MOVW R30,R16
	SBIW R30,1
	MOVW R16,R30
	BRNE _0x64
; 0000 02A4     clearline();
	RCALL _clearline
; 0000 02A5 }
_0x2000003:
	LD   R16,Y+
	LD   R17,Y+
	RET
;
;uint16_t resi(void)
; 0000 02A8 {
_resi:
; 0000 02A9     uint8_t x, count;
; 0000 02AA     uint16_t buf, buf2;
; 0000 02AB 
; 0000 02AC     buf = 0;
	CALL __SAVELOCR6
;	x -> R17
;	count -> R16
;	buf -> R18,R19
;	buf2 -> R20,R21
	__GETWRN 18,19,0
; 0000 02AD 
; 0000 02AE     for (x = 0;x < 8;x++)
	LDI  R17,LOW(0)
_0x67:
	CPI  R17,8
	BRSH _0x68
; 0000 02AF     {
; 0000 02B0         count = 0;
	LDI  R16,LOW(0)
; 0000 02B1         while ((PINB & 0x20) == 0)
_0x69:
	SBIC 0x3,5
	RJMP _0x6B
; 0000 02B2         {
; 0000 02B3             count++;
	SUBI R16,-1
; 0000 02B4             if (count > 50)
	CPI  R16,51
	BRLO _0x6C
; 0000 02B5             {
; 0000 02B6                 return buf;
	RJMP _0x2000001
; 0000 02B7             }
; 0000 02B8         }
_0x6C:
	RJMP _0x69
_0x6B:
; 0000 02B9         buf = buf << 1;
	LSL  R18
	ROL  R19
; 0000 02BA         if ((PINB & 0x08) == 0x08)
	IN   R30,0x3
	ANDI R30,LOW(0x8)
	CPI  R30,LOW(0x8)
	BRNE _0x6D
; 0000 02BB         {
; 0000 02BC             buf = buf + 0x0001;
	__ADDWRN 18,19,1
; 0000 02BD         }
; 0000 02BE         count = 0;
_0x6D:
	LDI  R16,LOW(0)
; 0000 02BF         while ((PINB & 0x20) != 0)
_0x6E:
	SBIS 0x3,5
	RJMP _0x70
; 0000 02C0         {
; 0000 02C1             count++;
	SUBI R16,-1
; 0000 02C2             if (count > 50)
	CPI  R16,51
	BRLO _0x71
; 0000 02C3             {
; 0000 02C4                 return buf;
	RJMP _0x2000001
; 0000 02C5             }
; 0000 02C6         }
_0x71:
	RJMP _0x6E
_0x70:
; 0000 02C7     }
	SUBI R17,-1
	RJMP _0x67
_0x68:
; 0000 02C8     command = buf;
	STS  _command,R18
; 0000 02C9 
; 0000 02CA     buf = 0;
	__GETWRN 18,19,0
; 0000 02CB     switch (command)
	LDS  R30,_command
; 0000 02CC      {
; 0000 02CD         //send back current temperature
; 0000 02CE         case 0xbf:
	CPI  R30,LOW(0xBF)
	BRNE _0x75
; 0000 02CF             buf2 = sensorTempOutBuffer;
	__GETWRMN 20,21,0,_sensorTempOutBuffer
; 0000 02D0             break;
	RJMP _0x74
; 0000 02D1         //send back current target temperature
; 0000 02D2         case 0xbe:
_0x75:
	CPI  R30,LOW(0xBE)
	BRNE _0x76
; 0000 02D3             buf2 = targetTempInBuffer;
	__GETWRMN 20,21,0,_targetTempInBuffer
; 0000 02D4             break;
	RJMP _0x74
; 0000 02D5         //send back current coolen On/Off status
; 0000 02D6         case 0xbd:
_0x76:
	CPI  R30,LOW(0xBD)
	BRNE _0x77
; 0000 02D7             if (coolerOnInBuffer == TRUE)
	LDS  R26,_coolerOnInBuffer
	CPI  R26,LOW(0x1)
	BRNE _0x78
; 0000 02D8             {
; 0000 02D9                 buf2 = TRUE_INV_PROT;
	__GETWRN 20,21,-21931
; 0000 02DA             }
; 0000 02DB             else
	RJMP _0x79
_0x78:
; 0000 02DC             {
; 0000 02DD                 buf2 = FALSE_INV_PROT;
	__GETWRN 20,21,21930
; 0000 02DE             }
_0x79:
; 0000 02DF             break;
	RJMP _0x74
; 0000 02E0         //send back current cooler power percentage
; 0000 02E1         case 0xbc:
_0x77:
	CPI  R30,LOW(0xBC)
	BRNE _0x7B
; 0000 02E2             buf2 = coolerPowerOutBuffer | HIGH_MASK_PROT;
	LDS  R30,_coolerPowerOutBuffer
	LDI  R31,0
	ORI  R31,HIGH(0xAA00)
	MOVW R20,R30
; 0000 02E3             break;
	RJMP _0x74
; 0000 02E4         default:
_0x7B:
; 0000 02E5             buf2 = 0;
	__GETWRN 20,21,0
; 0000 02E6             break;
; 0000 02E7      }
_0x74:
; 0000 02E8 
; 0000 02E9     for (x = 0;x < 16;x++)
	LDI  R17,LOW(0)
_0x7D:
	CPI  R17,16
	BRSH _0x7E
; 0000 02EA     {
; 0000 02EB         count = 0;
	LDI  R16,LOW(0)
; 0000 02EC         while ((PINB & 0x20) == 0)
_0x7F:
	SBIC 0x3,5
	RJMP _0x81
; 0000 02ED         {
; 0000 02EE             count++;
	SUBI R16,-1
; 0000 02EF             if (count > 50)
	CPI  R16,51
	BRSH _0x2000001
; 0000 02F0             {
; 0000 02F1                 return buf;
; 0000 02F2             }
; 0000 02F3         }
	RJMP _0x7F
_0x81:
; 0000 02F4         buf = buf << 1;
	LSL  R18
	ROL  R19
; 0000 02F5         if ((PINB & 0x08) == 0x08)
	IN   R30,0x3
	ANDI R30,LOW(0x8)
	CPI  R30,LOW(0x8)
	BRNE _0x83
; 0000 02F6         {
; 0000 02F7             buf = buf + 0x0001;
	__ADDWRN 18,19,1
; 0000 02F8         }
; 0000 02F9         if ((buf2 & 0x8000) == 0)
_0x83:
	SBRC R21,7
	RJMP _0x84
; 0000 02FA         {
; 0000 02FB             PORTB = PORTB & ~0x10;
	CBI  0x5,4
; 0000 02FC         }
; 0000 02FD         else
	RJMP _0x85
_0x84:
; 0000 02FE         {
; 0000 02FF             PORTB = PORTB | 0x10;
	SBI  0x5,4
; 0000 0300         }
_0x85:
; 0000 0301         buf2 = buf2 << 1;
	LSL  R20
	ROL  R21
; 0000 0302         count = 0;
	LDI  R16,LOW(0)
; 0000 0303         while ((PINB & 0x20) != 0)
_0x86:
	SBIS 0x3,5
	RJMP _0x88
; 0000 0304         {
; 0000 0305             count++;
	SUBI R16,-1
; 0000 0306             if (count > 50)
	CPI  R16,51
	BRSH _0x2000001
; 0000 0307             {
; 0000 0308                 return buf;
; 0000 0309             }
; 0000 030A         }
	RJMP _0x86
_0x88:
; 0000 030B     }
	SUBI R17,-1
	RJMP _0x7D
_0x7E:
; 0000 030C     return buf;
_0x2000001:
	MOVW R30,R18
	CALL __LOADLOCR6
_0x2000002:
	ADIW R28,6
	RET
; 0000 030D }

	.DSEG
_y0:
	.BYTE 0x2
_dy:
	.BYTE 0x2
_expoz:
	.BYTE 0x2
_cmdReceived:
	.BYTE 0x1
_command:
	.BYTE 0x1
_parcom:
	.BYTE 0x2
_sensorTemp:
	.BYTE 0x2
_targetTemp:
	.BYTE 0x2
_coolerOn:
	.BYTE 0x1
_coolerPower:
	.BYTE 0x1
_targetTempInBuffer:
	.BYTE 0x2
_coolerOnInBuffer:
	.BYTE 0x1
_sensorTempOutBuffer:
	.BYTE 0x2
_coolerPowerOutBuffer:
	.BYTE 0x1

	.CSEG

	.CSEG
_delay_ms:
	adiw r26,0
	breq __delay_ms1
__delay_ms0:
	__DELAY_USW 0x7D0
	wdr
	sbiw r26,1
	brne __delay_ms0
__delay_ms1:
	ret

__ROUND_REPACK:
	TST  R21
	BRPL __REPACK
	CPI  R21,0x80
	BRNE __ROUND_REPACK0
	SBRS R30,0
	RJMP __REPACK
__ROUND_REPACK0:
	ADIW R30,1
	ADC  R22,R25
	ADC  R23,R25
	BRVS __REPACK1

__REPACK:
	LDI  R21,0x80
	EOR  R21,R23
	BRNE __REPACK0
	PUSH R21
	RJMP __ZERORES
__REPACK0:
	CPI  R21,0xFF
	BREQ __REPACK1
	LSL  R22
	LSL  R0
	ROR  R21
	ROR  R22
	MOV  R23,R21
	RET
__REPACK1:
	PUSH R21
	TST  R0
	BRMI __REPACK2
	RJMP __MAXRES
__REPACK2:
	RJMP __MINRES

__UNPACK:
	LDI  R21,0x80
	MOV  R1,R25
	AND  R1,R21
	LSL  R24
	ROL  R25
	EOR  R25,R21
	LSL  R21
	ROR  R24

__UNPACK1:
	LDI  R21,0x80
	MOV  R0,R23
	AND  R0,R21
	LSL  R22
	ROL  R23
	EOR  R23,R21
	LSL  R21
	ROR  R22
	RET

__CFD1U:
	SET
	RJMP __CFD1U0
__CFD1:
	CLT
__CFD1U0:
	PUSH R21
	RCALL __UNPACK1
	CPI  R23,0x80
	BRLO __CFD10
	CPI  R23,0xFF
	BRCC __CFD10
	RJMP __ZERORES
__CFD10:
	LDI  R21,22
	SUB  R21,R23
	BRPL __CFD11
	NEG  R21
	CPI  R21,8
	BRTC __CFD19
	CPI  R21,9
__CFD19:
	BRLO __CFD17
	SER  R30
	SER  R31
	SER  R22
	LDI  R23,0x7F
	BLD  R23,7
	RJMP __CFD15
__CFD17:
	CLR  R23
	TST  R21
	BREQ __CFD15
__CFD18:
	LSL  R30
	ROL  R31
	ROL  R22
	ROL  R23
	DEC  R21
	BRNE __CFD18
	RJMP __CFD15
__CFD11:
	CLR  R23
__CFD12:
	CPI  R21,8
	BRLO __CFD13
	MOV  R30,R31
	MOV  R31,R22
	MOV  R22,R23
	SUBI R21,8
	RJMP __CFD12
__CFD13:
	TST  R21
	BREQ __CFD15
__CFD14:
	LSR  R23
	ROR  R22
	ROR  R31
	ROR  R30
	DEC  R21
	BRNE __CFD14
__CFD15:
	TST  R0
	BRPL __CFD16
	RCALL __ANEGD1
__CFD16:
	POP  R21
	RET

__CDF1U:
	SET
	RJMP __CDF1U0
__CDF1:
	CLT
__CDF1U0:
	SBIW R30,0
	SBCI R22,0
	SBCI R23,0
	BREQ __CDF10
	CLR  R0
	BRTS __CDF11
	TST  R23
	BRPL __CDF11
	COM  R0
	RCALL __ANEGD1
__CDF11:
	MOV  R1,R23
	LDI  R23,30
	TST  R1
__CDF12:
	BRMI __CDF13
	DEC  R23
	LSL  R30
	ROL  R31
	ROL  R22
	ROL  R1
	RJMP __CDF12
__CDF13:
	MOV  R30,R31
	MOV  R31,R22
	MOV  R22,R1
	PUSH R21
	RCALL __REPACK
	POP  R21
__CDF10:
	RET

__SWAPACC:
	PUSH R20
	MOVW R20,R30
	MOVW R30,R26
	MOVW R26,R20
	MOVW R20,R22
	MOVW R22,R24
	MOVW R24,R20
	MOV  R20,R0
	MOV  R0,R1
	MOV  R1,R20
	POP  R20
	RET

__UADD12:
	ADD  R30,R26
	ADC  R31,R27
	ADC  R22,R24
	RET

__NEGMAN1:
	COM  R30
	COM  R31
	COM  R22
	SUBI R30,-1
	SBCI R31,-1
	SBCI R22,-1
	RET

__SUBF12:
	PUSH R21
	RCALL __UNPACK
	CPI  R25,0x80
	BREQ __ADDF129
	LDI  R21,0x80
	EOR  R1,R21

	RJMP __ADDF120

__ADDF12:
	PUSH R21
	RCALL __UNPACK
	CPI  R25,0x80
	BREQ __ADDF129

__ADDF120:
	CPI  R23,0x80
	BREQ __ADDF128
__ADDF121:
	MOV  R21,R23
	SUB  R21,R25
	BRVS __ADDF1211
	BRPL __ADDF122
	RCALL __SWAPACC
	RJMP __ADDF121
__ADDF122:
	CPI  R21,24
	BRLO __ADDF123
	CLR  R26
	CLR  R27
	CLR  R24
__ADDF123:
	CPI  R21,8
	BRLO __ADDF124
	MOV  R26,R27
	MOV  R27,R24
	CLR  R24
	SUBI R21,8
	RJMP __ADDF123
__ADDF124:
	TST  R21
	BREQ __ADDF126
__ADDF125:
	LSR  R24
	ROR  R27
	ROR  R26
	DEC  R21
	BRNE __ADDF125
__ADDF126:
	MOV  R21,R0
	EOR  R21,R1
	BRMI __ADDF127
	RCALL __UADD12
	BRCC __ADDF129
	ROR  R22
	ROR  R31
	ROR  R30
	INC  R23
	BRVC __ADDF129
	RJMP __MAXRES
__ADDF128:
	RCALL __SWAPACC
__ADDF129:
	RCALL __REPACK
	POP  R21
	RET
__ADDF1211:
	BRCC __ADDF128
	RJMP __ADDF129
__ADDF127:
	SUB  R30,R26
	SBC  R31,R27
	SBC  R22,R24
	BREQ __ZERORES
	BRCC __ADDF1210
	COM  R0
	RCALL __NEGMAN1
__ADDF1210:
	TST  R22
	BRMI __ADDF129
	LSL  R30
	ROL  R31
	ROL  R22
	DEC  R23
	BRVC __ADDF1210

__ZERORES:
	CLR  R30
	CLR  R31
	CLR  R22
	CLR  R23
	POP  R21
	RET

__MINRES:
	SER  R30
	SER  R31
	LDI  R22,0x7F
	SER  R23
	POP  R21
	RET

__MAXRES:
	SER  R30
	SER  R31
	LDI  R22,0x7F
	LDI  R23,0x7F
	POP  R21
	RET

__MULF12:
	PUSH R21
	RCALL __UNPACK
	CPI  R23,0x80
	BREQ __ZERORES
	CPI  R25,0x80
	BREQ __ZERORES
	EOR  R0,R1
	SEC
	ADC  R23,R25
	BRVC __MULF124
	BRLT __ZERORES
__MULF125:
	TST  R0
	BRMI __MINRES
	RJMP __MAXRES
__MULF124:
	PUSH R0
	PUSH R17
	PUSH R18
	PUSH R19
	PUSH R20
	CLR  R17
	CLR  R18
	CLR  R25
	MUL  R22,R24
	MOVW R20,R0
	MUL  R24,R31
	MOV  R19,R0
	ADD  R20,R1
	ADC  R21,R25
	MUL  R22,R27
	ADD  R19,R0
	ADC  R20,R1
	ADC  R21,R25
	MUL  R24,R30
	RCALL __MULF126
	MUL  R27,R31
	RCALL __MULF126
	MUL  R22,R26
	RCALL __MULF126
	MUL  R27,R30
	RCALL __MULF127
	MUL  R26,R31
	RCALL __MULF127
	MUL  R26,R30
	ADD  R17,R1
	ADC  R18,R25
	ADC  R19,R25
	ADC  R20,R25
	ADC  R21,R25
	MOV  R30,R19
	MOV  R31,R20
	MOV  R22,R21
	MOV  R21,R18
	POP  R20
	POP  R19
	POP  R18
	POP  R17
	POP  R0
	TST  R22
	BRMI __MULF122
	LSL  R21
	ROL  R30
	ROL  R31
	ROL  R22
	RJMP __MULF123
__MULF122:
	INC  R23
	BRVS __MULF125
__MULF123:
	RCALL __ROUND_REPACK
	POP  R21
	RET

__MULF127:
	ADD  R17,R0
	ADC  R18,R1
	ADC  R19,R25
	RJMP __MULF128
__MULF126:
	ADD  R18,R0
	ADC  R19,R1
__MULF128:
	ADC  R20,R25
	ADC  R21,R25
	RET

__DIVF21:
	PUSH R21
	RCALL __UNPACK
	CPI  R23,0x80
	BRNE __DIVF210
	TST  R1
__DIVF211:
	BRPL __DIVF219
	RJMP __MINRES
__DIVF219:
	RJMP __MAXRES
__DIVF210:
	CPI  R25,0x80
	BRNE __DIVF218
__DIVF217:
	RJMP __ZERORES
__DIVF218:
	EOR  R0,R1
	SEC
	SBC  R25,R23
	BRVC __DIVF216
	BRLT __DIVF217
	TST  R0
	RJMP __DIVF211
__DIVF216:
	MOV  R23,R25
	PUSH R17
	PUSH R18
	PUSH R19
	PUSH R20
	CLR  R1
	CLR  R17
	CLR  R18
	CLR  R19
	CLR  R20
	CLR  R21
	LDI  R25,32
__DIVF212:
	CP   R26,R30
	CPC  R27,R31
	CPC  R24,R22
	CPC  R20,R17
	BRLO __DIVF213
	SUB  R26,R30
	SBC  R27,R31
	SBC  R24,R22
	SBC  R20,R17
	SEC
	RJMP __DIVF214
__DIVF213:
	CLC
__DIVF214:
	ROL  R21
	ROL  R18
	ROL  R19
	ROL  R1
	ROL  R26
	ROL  R27
	ROL  R24
	ROL  R20
	DEC  R25
	BRNE __DIVF212
	MOVW R30,R18
	MOV  R22,R1
	POP  R20
	POP  R19
	POP  R18
	POP  R17
	TST  R22
	BRMI __DIVF215
	LSL  R21
	ROL  R30
	ROL  R31
	ROL  R22
	DEC  R23
	BRVS __DIVF217
__DIVF215:
	RCALL __ROUND_REPACK
	POP  R21
	RET

__CMPF12:
	TST  R25
	BRMI __CMPF120
	TST  R23
	BRMI __CMPF121
	CP   R25,R23
	BRLO __CMPF122
	BRNE __CMPF121
	CP   R26,R30
	CPC  R27,R31
	CPC  R24,R22
	BRLO __CMPF122
	BREQ __CMPF123
__CMPF121:
	CLZ
	CLC
	RET
__CMPF122:
	CLZ
	SEC
	RET
__CMPF123:
	SEZ
	CLC
	RET
__CMPF120:
	TST  R23
	BRPL __CMPF122
	CP   R25,R23
	BRLO __CMPF121
	BRNE __CMPF122
	CP   R30,R26
	CPC  R31,R27
	CPC  R22,R24
	BRLO __CMPF122
	BREQ __CMPF123
	RJMP __CMPF121

__ANEGD1:
	COM  R31
	COM  R22
	COM  R23
	NEG  R30
	SBCI R31,-1
	SBCI R22,-1
	SBCI R23,-1
	RET

__LSRW4:
	LSR  R31
	ROR  R30
__LSRW3:
	LSR  R31
	ROR  R30
__LSRW2:
	LSR  R31
	ROR  R30
	LSR  R31
	ROR  R30
	RET

__CWD1:
	MOV  R22,R31
	ADD  R22,R22
	SBC  R22,R22
	MOV  R23,R22
	RET

__MULW12U:
	MUL  R31,R26
	MOV  R31,R0
	MUL  R30,R27
	ADD  R31,R0
	MUL  R30,R26
	MOV  R30,R0
	ADD  R31,R1
	RET

__DIVW21U:
	CLR  R0
	CLR  R1
	LDI  R25,16
__DIVW21U1:
	LSL  R26
	ROL  R27
	ROL  R0
	ROL  R1
	SUB  R0,R30
	SBC  R1,R31
	BRCC __DIVW21U2
	ADD  R0,R30
	ADC  R1,R31
	RJMP __DIVW21U3
__DIVW21U2:
	SBR  R26,1
__DIVW21U3:
	DEC  R25
	BRNE __DIVW21U1
	MOVW R30,R26
	MOVW R26,R0
	RET

__PUTD1S0:
	ST   Y,R30
	STD  Y+1,R31
	STD  Y+2,R22
	STD  Y+3,R23
	RET

__CLRD1S0:
	ST   Y,R30
	STD  Y+1,R30
	STD  Y+2,R30
	STD  Y+3,R30
	RET

__SWAPD12:
	MOV  R1,R24
	MOV  R24,R22
	MOV  R22,R1
	MOV  R1,R25
	MOV  R25,R23
	MOV  R23,R1

__SWAPW12:
	MOV  R1,R27
	MOV  R27,R31
	MOV  R31,R1

__SWAPB12:
	MOV  R1,R26
	MOV  R26,R30
	MOV  R30,R1
	RET

__CPD02:
	CLR  R0
	CP   R0,R26
	CPC  R0,R27
	CPC  R0,R24
	CPC  R0,R25
	RET

__SAVELOCR6:
	ST   -Y,R21
__SAVELOCR5:
	ST   -Y,R20
__SAVELOCR4:
	ST   -Y,R19
__SAVELOCR3:
	ST   -Y,R18
__SAVELOCR2:
	ST   -Y,R17
	ST   -Y,R16
	RET

__LOADLOCR6:
	LDD  R21,Y+5
__LOADLOCR5:
	LDD  R20,Y+4
__LOADLOCR4:
	LDD  R19,Y+3
__LOADLOCR3:
	LDD  R18,Y+2
__LOADLOCR2:
	LDD  R17,Y+1
	LD   R16,Y
	RET

;END OF CODE MARKER
__END_OF_CODE:
